(dp0
S'METTS MARK'
p1
(dp2
S'to_messages'
p3
F807.0
sS'deferral_payments'
p4
F0.0
sS'expenses'
p5
F94299.0
sS'poi'
p6
I00
sS'long_term_incentive'
p7
F0.0
sS'email_address'
p8
S'mark.metts@enron.com'
p9
sS'from_poi_to_this_person'
p10
F38.0
sS'deferred_income'
p11
F1.0
sS'restricted_stock_deferred'
p12
F0.0
sS'shared_receipt_with_poi'
p13
F702.0
sS'loan_advances'
p14
F0.0
sS'from_messages'
p15
F29.0
sS'other'
p16
F1740.0
sS'shared_receipt_over_from_messages'
p17
F0.1456992913689329
sS'director_fees'
p18
F0.0
sS'bonus'
p19
F0.075
sS'shared_receipt_over_to_messages'
p20
F0.8688931800974881
sS'total_stock_value'
p21
F0.011913277759404088
sS'bonus_over_total_salary'
p22
F0.10874916535367814
sS'from_this_person_to_poi'
p23
F1.0
sS'restricted_stock'
p24
F0.03963379812642099
sS'salary'
p25
F0.329165684296536
sS'sum_total_poi_messages'
p26
F0.0415335463258786
sS'total_payments'
p27
F0.010253274646850635
sS'salary_over_total_salary'
p28
F0.36340434446027864
sS'exercised_stock_options'
p29
F0.0
ssS'BAXTER JOHN C'
p30
(dp31
g3
F0.0
sg4
F1295738.0
sg5
F11200.0
sg6
I00
sg7
F0.3082451353957703
sg8
I0
sg10
F0.0
sg11
F0.6044799288662835
sg12
F0.0
sg13
F0.0
sg14
F0.0
sg15
F0.0
sg16
F2660303.0
sg17
F0.0
sg18
F0.0
sg19
F0.15
sg20
F0.0
sg21
F0.21631523370824213
sg22
F0.040988913880464856
sg23
F0.0
sg24
F0.26709089078800846
sg25
F0.2403600244047737
sg26
F0.0
sg27
F0.05440666533584129
sg28
F0.0500090130224165
sg29
F0.1944936914644951
ssS'ELLIOTT STEVEN'
p32
(dp33
g3
F0.0
sg4
F0.0
sg5
F78552.0
sg6
I00
sg7
F0.0
sg8
S'steven.elliott@enron.com'
p34
sg10
F0.0
sg11
F0.8856492977657142
sg12
F0.0
sg13
F0.0
sg14
F0.0
sg15
F0.0
sg16
F12961.0
sg17
F0.0
sg18
F0.0
sg19
F0.04375
sg20
F0.0
sg21
F0.13599520245111402
sg22
F0.3181444483803676
sg23
F0.0
sg24
F0.12115079746267603
sg25
F0.15382656412822224
sg26
F0.0
sg27
F0.002044471062239377
sg28
F0.8517036805746897
sg29
F0.14237479119832827
ssS'CORDES WILLIAM R'
p35
(dp36
g3
F764.0
sg4
F0.0
sg5
F0.0
sg6
I00
sg7
F0.0
sg8
S'bill.cordes@enron.com'
p37
sg10
F10.0
sg11
F1.0
sg12
F0.0
sg13
F58.0
sg14
F0.0
sg15
F12.0
sg16
F0.0
sg17
F0.029091430209229004
sg18
F0.0
sg19
F0.0
sg20
F0.07582936969101561
sg21
F0.021139958279031854
sg22
F0.0
sg23
F0.0
sg24
F0.02617145430598954
sg25
F0.0
sg26
F0.010649627263045795
sg27
F0.0
sg28
F0.0
sg29
F0.018977603138476615
ssS'HANNON KEVIN P'
p38
(dp39
g3
F1045.0
sg4
F0.0
sg5
F34039.0
sg6
I01
sg7
F0.31426134316366705
sg8
S'kevin.hannon@enron.com'
p40
sg10
F32.0
sg11
F0.11054004895579417
sg12
F0.0
sg13
F1035.0
sg14
F0.0
sg15
F32.0
sg16
F11350.0
sg17
F0.1946743336199484
sg18
F0.0
sg19
F0.1875
sg20
F0.9892974061949131
sg21
F0.1301375452916202
sg22
F1.0
sg23
F21.0
sg24
F0.05778903152985016
sg25
F0.2189347568251477
sg26
F0.05644302449414271
sg27
F0.002787587649967589
sg28
F0.8890462071485725
sg29
F0.1612303216360921
ssS'MORDAUNT KRISTINA M'
p41
(dp42
g3
F0.0
sg4
F0.0
sg5
F35018.0
sg6
I00
sg7
F0.0
sg8
S'kristina.mordaunt@enron.com'
p43
sg10
F0.0
sg11
F1.0
sg12
F0.0
sg13
F0.0
sg14
F0.0
sg15
F0.0
sg16
F1411.0
sg17
F0.0
sg18
F0.0
sg19
F0.040625
sg20
F0.0
sg21
F0.00424576804785364
sg22
F0.0995156361538127
sg23
F0.0
sg24
F0.014125072637327395
sg25
F0.24035192547545214
sg26
F0.0
sg27
F0.006069170107360102
sg28
F0.4482873126020581
sg29
F0.0
ssS'MEYER ROCKFORD G'
p44
(dp45
g3
F232.0
sg4
F1848227.0
sg5
F0.0
sg6
I00
sg7
F0.0
sg8
S'rockford.meyer@enron.com'
p46
sg10
F0.0
sg11
F1.0
sg12
F0.0
sg13
F22.0
sg14
F0.0
sg15
F28.0
sg16
F0.0
sg17
F0.004729148753224419
sg18
F0.0
sg19
F0.0
sg20
F0.0947190878245088
sg21
F0.019463886821763955
sg22
F0.0
sg23
F0.0
sg24
F0.03132323431172601
sg25
F0.0
sg26
F0.0
sg27
F0.017846955333330958
sg28
F0.0
sg29
F0.014367167899369006
ssS'MCMAHON JEFFREY'
p47
(dp48
g3
F2355.0
sg4
F0.0
sg5
F137108.0
sg6
I00
sg7
F0.13504439081329195
sg8
S'jeffrey.mcmahon@enron.com'
p49
sg10
F58.0
sg11
F1.0
sg12
F0.0
sg13
F2228.0
sg14
F0.0
sg15
F48.0
sg16
F297353.0
sg17
F0.27937804528518195
sg18
F0.0
sg19
F0.325
sg20
F0.9449897243801835
sg21
F0.03385975074199638
sg22
F0.12205123977249785
sg23
F26.0
sg24
F0.03785480175920189
sg25
F0.3333591299230242
sg26
F0.08945686900958467
sg27
F0.03958844336430838
sg28
F0.09531957134387764
sg29
F0.03214282220671575
ssS'HORTON STANLEY C'
p50
(dp51
g3
F2350.0
sg4
F3131860.0
sg5
F0.0
sg6
I00
sg7
F0.0
sg8
S'stanley.horton@enron.com'
p52
sg10
F44.0
sg11
F1.0
sg12
F0.0
sg13
F1074.0
sg14
F0.0
sg15
F1073.0
sg16
F0.0
sg17
F0.006024526023340029
sg18
F0.0
sg19
F0.0
sg20
F0.45649836895661916
sg21
F0.14776290927495575
sg22
F0.0
sg23
F15.0
sg24
F0.13860733056788738
sg25
F0.0
sg26
F0.06283280085197018
sg27
F0.030242045771566962
sg28
F0.0
sg29
F0.15169764609595607
ssS'PIPER GREGORY F'
p53
(dp54
g3
F1238.0
sg4
F1130036.0
sg5
F43057.0
sg6
I00
sg7
F0.0
sg8
S'greg.piper@enron.com'
p55
sg10
F61.0
sg11
F0.9904882053518077
sg12
F-409554.0
sg13
F742.0
sg14
F0.0
sg15
F222.0
sg16
F778.0
sg17
F0.020117279790538605
sg18
F0.0
sg19
F0.049999999999999996
sg20
F0.5986680369533796
sg21
F0.017924834083953196
sg22
F0.04430282106633042
sg23
F48.0
sg24
F0.027744376763263075
sg25
F0.1773584532124853
sg26
F0.11608093716719915
sg27
F0.016778992596093736
sg28
F0.11965315713106876
sg29
F0.025628279921407655
ssS'HUMPHREY GENE E'
p56
(dp57
g3
F128.0
sg4
F2964506.0
sg5
F4994.0
sg6
I00
sg7
F0.0
sg8
S'gene.humphrey@enron.com'
p58
sg10
F10.0
sg11
F1.0
sg12
F0.0
sg13
F119.0
sg14
F0.0
sg15
F17.0
sg16
F0.0
sg17
F0.04213241616509028
sg18
F0.0
sg19
F0.0
sg20
F0.9286237843249429
sg21
F0.04648267917635969
sg22
F0.0
sg23
F17.0
sg24
F0.0
sg25
F0.1176360485143864
sg26
F0.028753993610223644
sg27
F0.029936560417806166
sg28
F0.04448121891071977
sg29
F0.0664592546770177
ssS'UMANOFF ADAM S'
p59
(dp60
g3
F111.0
sg4
F0.0
sg5
F53122.0
sg6
I00
sg7
F0.0
sg8
S'adam.umanoff@enron.com'
p61
sg10
F12.0
sg11
F1.0
sg12
F0.0
sg13
F41.0
sg14
F0.0
sg15
F18.0
sg16
F0.0
sg17
F0.013709754466418266
sg18
F0.0
sg19
F0.09859375
sg20
F0.368946749953615
sg21
F0.0
sg22
F0.13428027887148103
sg23
F0.0
sg24
F0.0
sg25
F0.2596957682194414
sg26
F0.012779552715654953
sg27
F0.010916022205645004
sg28
F0.2693014020624511
sg29
F0.0
ssS'BLACHMAN JEREMY M'
p62
(dp63
g3
F2475.0
sg4
F0.0
sg5
F84208.0
sg6
I00
sg7
F0.16165963842894499
sg8
S'jeremy.blachman@enron.com'
p64
sg10
F25.0
sg11
F1.0
sg12
F0.0
sg13
F2326.0
sg14
F0.0
sg15
F14.0
sg16
F272.0
sg17
F0.9999999999999999
sg18
F0.0
sg19
F0.10625
sg20
F0.9387226960682338
sg21
F0.01943295630685009
sg22
F0.08119099909752743
sg23
F2.0
sg24
F0.012806186065095239
sg25
F0.22366183190582203
sg26
F0.028753993610223644
sg27
F0.01945576503807805
sg28
F0.13013128462016021
sg29
F0.022280902647414214
ssS'SUNDE MARTIN'
p65
(dp66
g3
F2647.0
sg4
F0.0
sg5
F0.0
sg6
I00
sg7
F0.09259685383196053
sg8
S'marty.sunde@enron.com'
p67
sg10
F37.0
sg11
F1.0
sg12
F0.0
sg13
F2565.0
sg14
F0.0
sg15
F38.0
sg16
F111122.0
sg17
F0.4062768701633706
sg18
F0.0
sg19
F0.0875
sg20
F0.96791281352146
sg21
F0.014231702095850876
sg22
F0.08719295940586519
sg23
F13.0
sg24
F0.04734686953949865
sg25
F0.2317067683652221
sg26
F0.05324813631522897
sg27
F0.014919487141114698
sg28
F0.17580166251354398
sg29
F0.0
ssS'GIBBS DANA R'
p68
(dp69
g3
F169.0
sg4
F504610.0
sg5
F0.0
sg6
I00
sg7
F0.08977124184276779
sg8
S'dana.gibbs@enron.com'
p70
sg10
F0.0
sg11
F1.0
sg12
F0.0
sg13
F23.0
sg14
F0.0
sg15
F12.0
sg16
F0.0
sg17
F0.011536256807108054
sg18
F0.0
sg19
F0.0
sg20
F0.1359389598255995
sg21
F0.04516944566856522
sg22
F0.0
sg23
F0.0
sg24
F0.0
sg25
F0.0
sg26
F0.0
sg27
F0.009332985051447524
sg28
F0.0
sg29
F0.06458164087137258
ssS'LOWRY CHARLES P'
p71
(dp72
g3
F0.0
sg4
F0.0
sg5
F0.0
sg6
I00
sg7
F0.0
sg8
I0
sg10
F0.0
sg11
F1.0
sg12
F-153686.0
sg13
F0.0
sg14
F0.0
sg15
F0.0
sg16
F0.0
sg17
F0.0
sg18
F0.0
sg19
F0.0
sg20
F0.0
sg21
F0.0075789942748614655
sg22
F0.0
sg23
F0.0
sg24
F0.010411135740925125
sg25
F0.0
sg26
F0.0
sg27
F0.0
sg28
F0.0
sg29
F0.010836172088911081
ssS'COLWELL WESLEY'
p73
(dp74
g3
F1758.0
sg4
F27610.0
sg5
F16514.0
sg6
I01
sg7
F0.0
sg8
S'wes.colwell@enron.com'
p75
sg10
F240.0
sg11
F0.9588909440912046
sg12
F0.0
sg13
F1132.0
sg14
F0.0
sg15
F40.0
sg16
F101740.0
sg17
F0.170335339638865
sg18
F0.0
sg19
F0.15
sg20
F0.643176794932873
sg21
F0.014217896375566742
sg22
F0.1549612706864992
sg23
F11.0
sg24
F0.04730093985148317
sg25
F0.2596534738107622
sg26
F0.26730564430244946
sg27
F0.014391145026719008
sg28
F0.20423818368057858
sg29
F0.0
ssS'MULLER MARK S'
p76
(dp77
g3
F136.0
sg4
F842924.0
sg5
F0.0
sg6
I00
sg7
F0.33535460759966995
sg8
S's..muller@enron.com'
p78
sg10
F12.0
sg11
F0.7948285377238694
sg12
F0.0
sg13
F114.0
sg14
F0.0
sg15
F16.0
sg16
F947.0
sg17
F0.042884780739466895
sg18
F0.0
sg19
F0.13749999999999998
sg20
F0.8372762148337597
sg21
F0.02885045305772066
sg22
F0.06611352448051833
sg23
F0.0
sg24
F0.024423213216586116
sg25
F0.2264586621648618
sg26
F0.012779552715654953
sg27
F0.03092001159175743
sg28
F0.08290628240472508
sg29
F0.030753120729056713
ssS'JACKSON CHARLENE R'
p79
(dp80
g3
F258.0
sg4
F0.0
sg5
F10181.0
sg6
I00
sg7
F0.0
sg8
S'charlene.jackson@enron.com'
p81
sg10
F25.0
sg11
F1.0
sg12
F0.0
sg13
F117.0
sg14
F0.0
sg15
F56.0
sg16
F2435.0
sg17
F0.01257523645743766
sg18
F0.0
sg19
F0.03125
sg20
F0.4529695066787292
sg21
F0.014777720369330304
sg22
F0.08729306292870612
sg23
F19.0
sg24
F0.03662669067655785
sg25
F0.25966787190733387
sg26
F0.046858359957401494
sg27
F0.005322277923054558
sg28
F0.5522793711985853
sg29
F0.005387822611974991
ssS'WESTFAHL RICHARD K'
p82
(dp83
g3
F0.0
sg4
F0.0
sg5
F51870.0
sg6
I00
sg7
F0.04978996912602514
sg8
S'dick.westfahl@enron.com'
p84
sg10
F0.0
sg11
F0.9969181477154628
sg12
F0.0
sg13
F0.0
sg14
F0.0
sg15
F0.0
sg16
F401130.0
sg17
F0.0
sg18
F0.0
sg19
F0.0
sg20
F0.0
sg21
F0.007838106060430203
sg22
F0.0
sg23
F0.0
sg24
F0.02607627552772737
sg25
F0.05736201674138679
sg26
F0.0
sg27
F0.00735937160476943
sg28
F0.08823112794330613
sg29
F0.0
ssS'WALTERS GARETH W'
p85
(dp86
g3
F0.0
sg4
F53625.0
sg5
F33785.0
sg6
I00
sg7
F0.0
sg8
I0
sg10
F0.0
sg11
F1.0
sg12
F0.0
sg13
F0.0
sg14
F0.0
sg15
F0.0
sg16
F0.0
sg17
F0.0
sg18
F0.0
sg19
F0.0
sg20
F0.0
sg21
F0.02097999111302572
sg22
F0.0
sg23
F0.0
sg24
F0.0
sg25
F0.0
sg26
F0.0
sg27
F0.0008440534445641466
sg28
F0.0
sg29
F0.02999643301996391
ssS'WALLS JR ROBERT H'
p87
(dp88
g3
F671.0
sg4
F0.0
sg5
F50936.0
sg6
I00
sg7
F0.10509337016080665
sg8
S'rob.walls@enron.com'
p89
sg10
F17.0
sg11
F1.0
sg12
F0.0
sg13
F215.0
sg14
F0.0
sg15
F146.0
sg16
F2.0
sg17
F0.008863473067998444
sg18
F0.0
sg19
F0.10625
sg20
F0.3200506774614889
sg21
F0.12011785035242664
sg22
F0.09094300952126812
sg23
F0.0
sg24
F0.10516767249070465
sg25
F0.3213394189288176
sg26
F0.01810436634717785
sg27
F0.01736948238202832
sg28
F0.20941861338274464
sg29
F0.1265428964576616
ssS'KITCHEN LOUISE'
p90
(dp91
g3
F8305.0
sg4
F0.0
sg5
F5774.0
sg6
I00
sg7
F0.0
sg8
S'louise.kitchen@enron.com'
p92
sg10
F251.0
sg11
F1.0
sg12
F0.0
sg13
F3669.0
sg14
F0.0
sg15
F1728.0
sg16
F93925.0
sg17
F0.012779748256424955
sg18
F0.0
sg19
F0.38749999999999996
sg20
F0.44127658753721466
sg21
F0.011141155182038197
sg22
F0.1718770475375868
sg23
F194.0
sg24
F0.031575034680979025
sg25
F0.2442655080998292
sg26
F0.47390841320553784
sg27
F0.03351823038116733
sg28
F0.08249340245394274
sg29
F0.002359412308887661
ssS'CHAN RONNIE'
p93
(dp94
g3
F0.0
sg4
F0.0
sg5
F0.0
sg6
I00
sg7
F0.0
sg8
I0
sg10
F0.0
sg11
F0.9718113244374336
sg12
F-32460.0
sg13
F0.0
sg14
F0.0
sg15
F0.0
sg16
F0.0
sg17
F0.0
sg18
F98784.0
sg19
F0.0
sg20
F0.0
sg21
F0.0
sg22
F0.0
sg23
F0.0
sg24
F0.002198934620918168
sg25
F0.0
sg26
F0.0
sg27
F0.0
sg28
F0.0
sg29
F0.0
ssS'BELFER ROBERT'
p95
(dp96
g3
F0.0
sg4
F0.0
sg5
F3285.0
sg6
I00
sg7
F0.0
sg8
I0
sg10
F0.0
sg11
F0.9707509389661984
sg12
F-44093.0
sg13
F0.0
sg14
F0.0
sg15
F0.0
sg16
F0.0
sg17
F0.0
sg18
F102500.0
sg19
F0.0
sg20
F0.0
sg21
F0.0
sg22
F0.0
sg23
F0.0
sg24
F0.0029869878077678617
sg25
F0.0
sg26
F0.0
sg27
F3.172080500392657e-05
sg28
F0.0
sg29
F0.0
ssS'SHANKMAN JEFFREY A'
p97
(dp98
g3
F3221.0
sg4
F0.0
sg5
F178979.0
sg6
I00
sg7
F0.10775028889691327
sg8
S'jeffrey.shankman@enron.com'
p99
sg10
F94.0
sg11
F1.0
sg12
F0.0
sg13
F1730.0
sg14
F0.0
sg15
F2681.0
sg16
F1191.0
sg17
F0.0038838961989452864
sg18
F0.0
sg19
F0.25
sg20
F0.5364857482041835
sg21
F0.0421916454704063
sg22
F0.12666899660885908
sg23
F83.0
sg24
F0.04268730946461835
sg25
F0.2736628217749613
sg26
F0.18849840255591055
sg27
F0.029342488160438867
sg28
F0.10557400932783716
sg29
F0.041978627000327
ssS'WODRASKA JOHN'
p100
(dp101
g3
F0.0
sg4
F0.0
sg5
F0.0
sg6
I00
sg7
F0.0
sg8
S'john.wodraska@enron.com'
p102
sg10
F0.0
sg11
F1.0
sg12
F0.0
sg13
F0.0
sg14
F0.0
sg15
F0.0
sg16
F189583.0
sg17
F0.0
sg18
F0.0
sg19
F0.0
sg20
F0.0
sg21
F0.0
sg22
F0.0
sg23
F0.0
sg24
F0.0
sg25
F0.0
sg26
F0.0
sg27
F0.0018306622146299577
sg28
F0.0
sg29
F0.0
ssS'BERGSIEKER RICHARD P'
p103
(dp104
g3
F383.0
sg4
F0.0
sg5
F59175.0
sg6
I00
sg7
F0.0350310586045803
sg8
S'rick.bergsieker@enron.com'
p105
sg10
F4.0
sg11
F0.8613700088974217
sg12
F0.0
sg13
F233.0
sg14
F0.0
sg15
F59.0
sg16
F427316.0
sg17
F0.02376961977352551
sg18
F0.0
sg19
F0.03125
sg20
F0.6076590329268512
sg21
F0.013423904559874656
sg22
F0.07774689612453206
sg23
F0.0
sg24
F0.04465944084737158
sg25
F0.16910744399590374
sg26
F0.004259850905218318
sg27
F0.005975774787421601
sg28
F0.32033666946101164
sg29
F0.0
ssS'URQUHART JOHN A'
p106
(dp107
g3
F0.0
sg4
F0.0
sg5
F228656.0
sg6
I00
sg7
F0.0
sg8
I0
sg10
F0.0
sg11
F0.9895371114939964
sg12
F0.0
sg13
F0.0
sg14
F0.0
sg15
F0.0
sg16
F0.0
sg17
F0.0
sg18
F36666.0
sg19
F0.0
sg20
F0.0
sg21
F0.0
sg22
F0.0
sg23
F0.0
sg24
F0.0
sg25
F0.0
sg26
F0.0
sg27
F0.00220796115341791
sg28
F0.0
sg29
F0.0
ssS'BIBI PHILIPPE A'
p108
(dp109
g3
F1607.0
sg4
F0.0
sg5
F38559.0
sg6
I00
sg7
F0.07185419150260212
sg8
S'philippe.bibi@enron.com'
p110
sg10
F23.0
sg11
F1.0
sg12
F0.0
sg13
F1336.0
sg14
F0.0
sg15
F40.0
sg16
F425688.0
sg17
F0.20103181427343078
sg18
F0.0
sg19
F0.125
sg20
F0.8304115717990086
sg21
F0.03754455450060576
sg22
F0.09399068402102696
sg23
F8.0
sg24
F0.025612372130190478
sg25
F0.1922370862571968
sg26
F0.03301384451544196
sg27
F0.01977208471245206
sg28
F0.11005831637297067
sg29
F0.04267257522217057
ssS'PIRO JIM'
p111
(dp112
g3
F58.0
sg4
F0.0
sg5
F0.0
sg6
I00
sg7
F0.0
sg8
S'jim.piro@enron.com'
p113
sg10
F0.0
sg11
F1.0
sg12
F0.0
sg13
F3.0
sg14
F0.0
sg15
F16.0
sg16
F0.0
sg17
F0.0011285468615649182
sg18
F0.0
sg19
F0.0
sg20
F0.05166495699518662
sg21
F0.0009632238824788671
sg22
F0.0
sg23
F1.0
sg24
F0.0032045102682659588
sg25
F0.0
sg26
F0.0010649627263045794
sg27
F0.0
sg28
F0.0
sg29
F0.0
ssS'RIEKER PAULA H'
p114
(dp115
g3
F1328.0
sg4
F214678.0
sg5
F33271.0
sg6
I01
sg7
F0.0
sg8
S'paula.rieker@enron.com'
p116
sg10
F35.0
sg11
F0.9714643306987301
sg12
F0.0
sg13
F1258.0
sg14
F0.0
sg15
F82.0
sg16
F1950.0
sg17
F0.0923389887381247
sg18
F0.0
sg19
F0.0875
sg20
F0.9462053017562241
sg21
F0.03907318167973588
sg22
F0.12257143723652685
sg23
F48.0
sg24
F0.019215206601627156
sg25
F0.22425125398422327
sg26
F0.0883919062832801
sg27
F0.010613192322622738
sg28
F0.23918117671935557
sg29
F0.04760742164755116
ssS'WHALEY DAVID A'
p117
(dp118
g3
F0.0
sg4
F0.0
sg5
F0.0
sg6
I00
sg7
F0.0
sg8
I0
sg10
F0.0
sg11
F1.0
sg12
F0.0
sg13
F0.0
sg14
F0.0
sg15
F0.0
sg16
F0.0
sg17
F0.0
sg18
F0.0
sg19
F0.0
sg20
F0.0
sg21
F0.00201013730827306
sg22
F0.0
sg23
F0.0
sg24
F0.0
sg25
F0.0
sg26
F0.0
sg27
F0.0
sg28
F0.0
sg29
F0.002874021671587228
ssS'BECK SALLY W'
p119
(dp120
g3
F7315.0
sg4
F0.0
sg5
F37172.0
sg6
I00
sg7
F0.0
sg8
S'sally.beck@enron.com'
p121
sg10
F144.0
sg11
F1.0
sg12
F0.0
sg13
F2639.0
sg14
F0.0
sg15
F4343.0
sg16
F566.0
sg17
F0.0036573614769143535
sg18
F0.0
sg19
F0.0875
sg20
F0.3603527750101278
sg21
F0.0025662146168857645
sg22
F0.13901838329886723
sg23
F386.0
sg24
F0.0085374347957626
sg25
F0.2081694799947447
sg26
F0.5644302449414271
sg27
F0.009357569882357721
sg28
F0.25182110794394996
sg29
F0.0
ssS'HAUG DAVID L'
p122
(dp123
g3
F573.0
sg4
F0.0
sg5
F475.0
sg6
I00
sg7
F0.0
sg8
S'david.haug@enron.com'
p124
sg10
F4.0
sg11
F1.0
sg12
F0.0
sg13
F471.0
sg14
F0.0
sg15
F19.0
sg16
F0.0
sg17
F0.14920577453953027
sg18
F0.0
sg19
F0.0
sg20
F0.8210490373441002
sg21
F0.04514957194733024
sg22
F0.0
sg23
F7.0
sg24
F0.15020627036436332
sg25
F0.0
sg26
F0.011714589989350373
sg27
F4.5867221847382405e-06
sg28
F0.0
sg29
F0.0
ssS'ECHOLS JOHN B'
p125
(dp126
g3
F0.0
sg4
F0.0
sg5
F21530.0
sg6
I00
sg7
F0.4343217695533555
sg8
S'john.echols@enron.com'
p127
sg10
F0.0
sg11
F1.0
sg12
F0.0
sg13
F0.0
sg14
F0.0
sg15
F0.0
sg16
F53775.0
sg17
F0.0
sg18
F0.0
sg19
F0.024999999999999998
sg20
F0.0
sg21
F0.02054447968907726
sg22
F0.014296545784732198
sg23
F0.0
sg24
F0.027605436069871113
sg25
F0.16399881935608113
sg26
F0.0
sg27
F0.025997773093269894
sg28
F0.07140731850761248
sg29
F0.017509935838611795
ssS'MENDELSOHN JOHN'
p128
(dp129
g3
F0.0
sg4
F0.0
sg5
F148.0
sg6
I00
sg7
F0.0
sg8
I0
sg10
F0.0
sg11
F0.9703942430999325
sg12
F0.0
sg13
F0.0
sg14
F0.0
sg15
F0.0
sg16
F0.0
sg17
F0.0
sg18
F103750.0
sg19
F0.0
sg20
F0.0
sg21
F0.0
sg22
F0.0
sg23
F0.0
sg24
F0.0
sg25
F0.0
sg26
F0.0
sg27
F1.4291260701921256e-06
sg28
F0.0
sg29
F0.0
ssS'HICKERSON GARY J'
p130
(dp131
g3
F1320.0
sg4
F0.0
sg5
F98849.0
sg6
I00
sg7
F0.013453286933619206
sg8
S'gary.hickerson@enron.com'
p132
sg10
F40.0
sg11
F1.0
sg12
F0.0
sg13
F900.0
sg14
F0.0
sg15
F27.0
sg16
F1936.0
sg17
F0.2006305531670966
sg18
F0.0
sg19
F0.2125
sg20
F0.6810380694820054
sg21
F0.008981781702729123
sg22
F0.15715897875360185
sg23
F1.0
sg24
F0.029881123399523115
sg25
F0.19058400479456616
sg26
F0.043663471778487756
sg27
F0.020102357678524908
sg28
F0.10731924401690511
sg29
F0.0
ssS'CLINE KENNETH W'
p133
(dp134
g3
F0.0
sg4
F0.0
sg5
F0.0
sg6
I00
sg7
F0.0
sg8
I0
sg10
F0.0
sg11
F1.0
sg12
F-472568.0
sg13
F0.0
sg14
F0.0
sg15
F0.0
sg16
F0.0
sg17
F0.0
sg18
F0.0
sg19
F0.0
sg20
F0.0
sg21
F0.0038590449805435047
sg22
F0.0
sg23
F0.0
sg24
F0.044851627462268215
sg25
F0.0
sg26
F0.0
sg27
F0.0
sg28
F0.0
sg29
F0.0
ssS'LEWIS RICHARD'
p135
(dp136
g3
F952.0
sg4
F0.0
sg5
F0.0
sg6
I00
sg7
F0.0
sg8
S'richard.lewis@enron.com'
p137
sg10
F10.0
sg11
F1.0
sg12
F0.0
sg13
F739.0
sg14
F0.0
sg15
F26.0
sg16
F0.0
sg17
F0.1710761293736358
sg18
F0.0
sg19
F0.0
sg20
F0.7753723342884065
sg21
F0.017317769277417967
sg22
F0.0
sg23
F0.0
sg24
F0.0
sg25
F0.0
sg26
F0.010649627263045795
sg27
F0.0
sg28
F0.0
sg29
F0.024760320601982324
ssS'HAYES ROBERT E'
p138
(dp139
g3
F504.0
sg4
F7961.0
sg5
F0.0
sg6
I00
sg7
F0.0
sg8
S'robert.hayes@enron.com'
p140
sg10
F16.0
sg11
F1.0
sg12
F0.0
sg13
F50.0
sg14
F0.0
sg15
F12.0
sg16
F0.0
sg17
F0.025078819145887075
sg18
F0.0
sg19
F0.0
sg20
F0.09909284079764628
sg21
F0.0030832368052846506
sg22
F0.0
sg23
F0.0
sg24
F0.010257494837652101
sg25
F0.0
sg26
F0.01703940362087327
sg27
F7.687346381621292e-05
sg28
F0.0
sg29
F0.0
ssS'KOPPER MICHAEL J'
p141
(dp142
g3
F0.0
sg4
F0.0
sg5
F118134.0
sg6
I01
sg7
F0.11712734047312628
sg8
S'michael.kopper@enron.com'
p143
sg10
F0.0
sg11
F1.0
sg12
F0.0
sg13
F0.0
sg14
F0.0
sg15
F0.0
sg16
F907502.0
sg17
F0.0
sg18
F0.0
sg19
F0.09999999999999999
sg20
F0.0
sg21
F0.020057634606078206
sg22
F0.05804231200542459
sg23
F0.0
sg24
F0.06672892691042098
sg25
F0.20184781571876198
sg26
F0.0
sg27
F0.025614303806111315
sg28
F0.08920303891877952
sg29
F0.0
ssS'LEFF DANIEL P'
p144
(dp145
g3
F2822.0
sg4
F0.0
sg5
F0.0
sg6
I00
sg7
F0.2696369246986746
sg8
S'dan.leff@enron.com'
p146
sg10
F67.0
sg11
F1.0
sg12
F0.0
sg13
F2672.0
sg14
F0.0
sg15
F63.0
sg16
F3083.0
sg17
F0.2552784943154676
sg18
F0.0
sg19
F0.125
sg20
F0.9457628602983749
sg21
F0.0073412223047171704
sg22
F0.07223656033442583
sg23
F14.0
sg24
F0.024423213216586116
sg25
F0.24633883400614437
sg26
F0.08626198083067094
sg27
F0.025726470890106934
sg28
F0.10839040000365512
sg29
F0.0
ssS'LAVORATO JOHN J'
p147
(dp148
g3
F7259.0
sg4
F0.0
sg5
F49537.0
sg6
I00
sg7
F0.3955701307217234
sg8
S'john.lavorato@enron.com'
p149
sg10
F528.0
sg11
F1.0
sg12
F0.0
sg13
F3962.0
sg14
F0.0
sg15
F2585.0
sg16
F1552.0
sg17
F0.009225124777346654
sg18
F0.0
sg19
F1.0
sg20
F0.5451807162449329
sg21
F0.10521555270183036
sg22
F0.14767631101831102
sg23
F411.0
sg24
F0.06829493959162139
sg25
F0.30531883684976846
sg26
F1.0
sg27
F0.10067379142018949
sg28
F0.034330120412252155
sg29
F0.12108269780610348
ssS'BERBERIAN DAVID'
p150
(dp151
g3
F0.0
sg4
F0.0
sg5
F11892.0
sg6
I00
sg7
F0.0
sg8
S'david.berberian@enron.com'
p152
sg10
F0.0
sg11
F1.0
sg12
F0.0
sg13
F0.0
sg14
F0.0
sg15
F0.0
sg16
F0.0
sg17
F0.0
sg18
F0.0
sg19
F0.0
sg20
F0.0
sg21
F0.050776054560532365
sg22
F0.0
sg23
F0.0
sg24
F0.05888348586551109
sg25
F0.19489803447984175
sg26
F0.0
sg27
F0.002206203714601863
sg28
F1.0
sg29
F0.04729177361007726
ssS'DETMERING TIMOTHY J'
p153
(dp154
g3
F0.0
sg4
F875307.0
sg5
F52255.0
sg6
I00
sg7
F0.08078171831569504
sg8
S'timothy.detmering@enron.com'
p155
sg10
F0.0
sg11
F0.7787797919521422
sg12
F-315068.0
sg13
F0.0
sg14
F0.0
sg15
F0.0
sg16
F1105.0
sg17
F0.0
sg18
F0.0
sg19
F0.053125
sg20
F0.0
sg21
F0.04129223741000778
sg22
F0.06790169986902798
sg23
F0.0
sg24
F0.021343620860857837
sg25
F0.18942495802054968
sg26
F0.0
sg27
F0.01163176330412325
sg28
F0.18434433485751642
sg29
F0.05903814863604646
ssS'WAKEHAM JOHN'
p156
(dp157
g3
F0.0
sg4
F0.0
sg5
F103773.0
sg6
I00
sg7
F0.0
sg8
I0
sg10
F0.0
sg11
F1.0
sg12
F0.0
sg13
F0.0
sg14
F0.0
sg15
F0.0
sg16
F0.0
sg17
F0.0
sg18
F109298.0
sg19
F0.0
sg20
F0.0
sg21
F0.0
sg22
F0.0
sg23
F0.0
sg24
F0.0
sg25
F0.0
sg26
F0.0
sg27
F0.0020574683844723405
sg28
F0.0
sg29
F0.0
ssS'POWERS WILLIAM'
p158
(dp159
g3
F653.0
sg4
F0.0
sg5
F0.0
sg6
I00
sg7
F0.0
sg8
S'ken.powers@enron.com'
p160
sg10
F0.0
sg11
F0.9950062578722778
sg12
F0.0
sg13
F12.0
sg14
F0.0
sg15
F26.0
sg16
F0.0
sg17
F0.002777961505390568
sg18
F17500.0
sg19
F0.0
sg20
F0.01835569681911684
sg21
F0.0
sg22
F0.0
sg23
F0.0
sg24
F0.0
sg25
F0.0
sg26
F0.0
sg27
F0.0
sg28
F0.0
sg29
F0.0
ssS'GOLD JOSEPH'
p161
(dp162
g3
F0.0
sg4
F0.0
sg5
F0.0
sg6
I00
sg7
F0.05923795738124326
sg8
S'joe.gold@enron.com'
p163
sg10
F0.0
sg11
F1.0
sg12
F0.0
sg13
F0.0
sg14
F0.0
sg15
F0.0
sg16
F819288.0
sg17
F0.0
sg18
F0.0
sg19
F0.09375
sg20
F0.0
sg21
F0.0178702831626535
sg22
F0.06723000242667235
sg23
F0.0
sg24
F0.029881123399523115
sg25
F0.24555953702920474
sg26
F0.0
sg27
F0.02073172355607161
sg28
F0.13407862540918503
sg29
F0.01270845813299397
ssS'BANNANTINE JAMES M'
p164
(dp165
g3
F566.0
sg4
F0.0
sg5
F56301.0
sg6
I00
sg7
F0.0
sg8
S'james.bannantine@enron.com'
p166
sg10
F39.0
sg11
F0.9985435394388632
sg12
F-560222.0
sg13
F465.0
sg14
F0.0
sg15
F29.0
sg16
F864523.0
sg17
F0.09651021436831025
sg18
F0.0
sg19
F0.0
sg20
F0.820614776301639
sg21
F0.10677008087830771
sg22
F0.0
sg23
F0.0
sg24
F0.1190616740869984
sg25
F0.0004292432540418157
sg26
F0.0415335463258786
sg27
F0.008847033906296046
sg28
F0.0005492169587918126
sg29
F0.11779759420414072
ssS'DUNCAN JOHN H'
p167
(dp168
g3
F0.0
sg4
F0.0
sg5
F0.0
sg6
I00
sg7
F0.0
sg8
I0
sg10
F0.0
sg11
F0.9928660826746826
sg12
F0.0
sg13
F0.0
sg14
F0.0
sg15
F0.0
sg16
F0.0
sg17
F0.0
sg18
F102492.0
sg19
F0.0
sg20
F0.0
sg21
F0.007569729374080815
sg22
F0.0
sg23
F0.0
sg24
F0.0
sg25
F0.0
sg26
F0.0
sg27
F0.0007482826853468121
sg28
F0.0
sg29
F0.0108229254686334
ssS'SHAPIRO RICHARD S'
p169
(dp170
g3
F15149.0
sg4
F0.0
sg5
F137767.0
sg6
I00
sg7
F0.0
sg8
S'richard.shapiro@enron.com'
p171
sg10
F74.0
sg11
F1.0
sg12
F0.0
sg13
F4527.0
sg14
F0.0
sg15
F1215.0
sg16
F705.0
sg17
F0.02242603738734435
sg18
F0.0
sg19
F0.08125
sg20
F0.2984896934538731
sg21
F0.02009772820967623
sg22
F0.11828827942876667
sg23
F65.0
sg24
F0.025685669950887748
sg25
F0.24213638956929892
sg26
F0.14802981895633655
sg27
F0.010211955522159068
sg28
F0.2684041954426667
sg29
F0.017696232812582972
ssS'SHERRIFF JOHN R'
p172
(dp173
g3
F3187.0
sg4
F0.0
sg5
F0.0
sg6
I00
sg7
F0.10775028889691327
sg8
S'john.sherriff@enron.com'
p174
sg10
F28.0
sg11
F1.0
sg12
F0.0
sg13
F2103.0
sg14
F0.0
sg15
F92.0
sg16
F1852186.0
sg17
F0.13758458260121872
sg18
F0.0
sg19
F0.1875
sg20
F0.6591132166646683
sg21
F0.06371364346030972
sg22
F0.06658735042861216
sg23
F23.0
sg24
F0.08762029615300249
sg25
F0.385850990499056
sg26
F0.05431309904153355
sg27
F0.04186362172431148
sg28
F0.10433282673604712
sg29
F0.05343942818387031
ssS'SHELBY REX'
p175
(dp176
g3
F225.0
sg4
F0.0
sg5
F22884.0
sg6
I01
sg7
F0.0
sg8
S'rex.shelby@enron.com'
p177
sg10
F13.0
sg11
F0.9988109186602161
sg12
F0.0
sg13
F91.0
sg14
F0.0
sg15
F39.0
sg16
F1573324.0
sg17
F0.014044138721696763
sg18
F0.0
sg19
F0.024999999999999998
sg20
F0.40398169336384443
sg21
F0.050776054560532365
sg22
F0.019208154825917322
sg23
F14.0
sg24
F0.05888348586551109
sg25
F0.19063439813256686
sg26
F0.028753993610223644
sg27
F0.019350029021398294
sg28
F0.11152129375866372
sg29
F0.04729177361007726
ssS'LEMAISTRE CHARLES'
p178
(dp179
g3
F0.0
sg4
F0.0
sg5
F0.0
sg6
I00
sg7
F0.0
sg8
I0
sg10
F0.0
sg11
F0.9928660826746826
sg12
F0.0
sg13
F0.0
sg14
F0.0
sg15
F0.0
sg16
F0.0
sg17
F0.0
sg18
F112492.0
sg19
F0.0
sg20
F0.0
sg21
F0.008407194954974415
sg22
F0.0
sg23
F0.0
sg24
F0.0
sg25
F0.0
sg26
F0.0
sg27
F0.0008448452576570909
sg28
F0.0
sg29
F0.012020303487931193
ssS'DEFFNER JOSEPH M'
p180
(dp181
g3
F714.0
sg4
F0.0
sg5
F41626.0
sg6
I00
sg7
F0.06517409415804382
sg8
S'joseph.deffner@enron.com'
p182
sg10
F115.0
sg11
F1.0
sg12
F0.0
sg13
F552.0
sg14
F0.0
sg15
F74.0
sg16
F25553.0
sg17
F0.04489786433036648
sg18
F0.0
sg19
F0.075
sg20
F0.7722246793454225
sg21
F0.0032419211388749983
sg22
F0.09553873788006277
sg23
F4.0
sg24
F0.009608179115486339
sg25
F0.1854843789651008
sg26
F0.12673056443024494
sg27
F0.01167102564602461
sg28
F0.17990219781860547
sg29
F0.0005059335542539643
ssS'KISHKILL JOSEPH G'
p183
(dp184
g3
F0.0
sg4
F0.0
sg5
F116335.0
sg6
I00
sg7
F0.0
sg8
S'joe.kishkill@enron.com'
p185
sg10
F0.0
sg11
F0.9854348236752458
sg12
F0.0
sg13
F0.0
sg14
F0.0
sg15
F0.0
sg16
F465357.0
sg17
F0.0
sg18
F0.0
sg19
F0.0
sg20
F0.0
sg21
F0.02106178695134632
sg22
F0.0
sg23
F0.0
sg24
F0.07006960041306912
sg25
F0.15680067095130024
sg26
F0.0
sg27
F0.006806657097122626
sg28
F0.26076673923655935
sg29
F0.0
ssS'WHALLEY LAWRENCE G'
p186
(dp187
g3
F6019.0
sg4
F0.0
sg5
F57838.0
sg6
I00
sg7
F0.15709967322484364
sg8
S'greg.whalley@enron.com'
p188
sg10
F186.0
sg11
F1.0
sg12
F0.0
sg13
F3920.0
sg14
F0.0
sg15
F556.0
sg16
F301026.0
sg17
F0.0424355270727528
sg18
F0.0
sg19
F0.375
sg20
F0.6505258139461499
sg21
F0.12378593656479227
sg22
F0.12343236045009656
sg23
F24.0
sg24
F0.1894211463806254
sg25
F0.45926688491781387
sg26
F0.22364217252396168
sg27
F0.04516785776116798
sg28
F0.11509959382703809
sg29
F0.09557829561938053
ssS'MCCARTY DANNY J'
p189
(dp190
g3
F1433.0
sg4
F0.0
sg5
F0.0
sg6
I00
sg7
F0.0
sg8
S'danny.mccarty@enron.com'
p191
sg10
F25.0
sg11
F1.0
sg12
F0.0
sg13
F508.0
sg14
F0.0
sg15
F215.0
sg16
F0.0
sg17
F0.01422144014077466
sg18
F0.0
sg19
F0.0
sg20
F0.35409543915007646
sg21
F0.015453671240351114
sg22
F0.0
sg23
F2.0
sg24
F0.006405497905592678
sg25
F0.0
sg26
F0.028753993610223644
sg27
F0.0
sg28
F0.0
sg29
F0.01934224911425236
ssS'MCCONNELL MICHAEL S'
p192
(dp193
g3
F3329.0
sg4
F0.0
sg5
F81364.0
sg6
I00
sg7
F0.10775028889691327
sg8
S'mike.mcconnell@enron.com'
p194
sg10
F92.0
sg11
F1.0
sg12
F0.0
sg13
F2189.0
sg14
F0.0
sg15
F2742.0
sg16
F540.0
sg17
F0.004805035895872806
sg18
F0.0
sg19
F0.13749999999999998
sg20
F0.6568024702135661
sg21
F0.06314954335849354
sg22
F0.10074415157646811
sg23
F194.0
sg24
F0.10014223299846209
sg25
F0.3284907735197407
sg26
F0.30457933972310974
sg27
F0.02029131132002166
sg28
F0.18325305095056652
sg29
F0.04725142236676986
ssS'DELAINEY DAVID W'
p195
(dp196
g3
F3093.0
sg4
F0.0
sg5
F86174.0
sg6
I01
sg7
F0.2516757575745797
sg8
S'david.delainey@enron.com'
p197
sg10
F66.0
sg11
F1.0
sg12
F0.0
sg13
F2097.0
sg14
F0.0
sg15
F3069.0
sg16
F1661.0
sg17
F0.004112632160228754
sg18
F0.0
sg19
F0.375
sg20
F0.6772068174907391
sg21
F0.07359509793488823
sg22
F0.12160205426350873
sg23
F609.0
sg24
F0.08963388619219446
sg25
F0.3286032586492066
sg26
F0.7188498402555912
sg27
F0.0458477065515185
sg28
F0.08113204115033842
sg29
F0.06670220642694573
ssS'SULLIVAN-SHAKLOVITZ COLLEEN'
p198
(dp199
g3
F0.0
sg4
F181993.0
sg5
F0.0
sg6
I00
sg7
F0.10775028889691327
sg8
I0
sg10
F0.0
sg11
F1.0
sg12
F0.0
sg13
F0.0
sg14
F0.0
sg15
F0.0
sg16
F162.0
sg17
F0.0
sg18
F0.0
sg19
F0.012499999999999999
sg20
F0.0
sg21
F0.027741250991293476
sg22
F0.019257868734131448
sg23
F0.0
sg24
F0.0
sg25
F0.14648173511461784
sg26
F0.0
sg27
F0.009650038601371093
sg28
F0.17182746274244853
sg29
F0.03966343802375098
ssS'WROBEL BRUCE'
p200
(dp201
g3
F0.0
sg4
F0.0
sg5
F0.0
sg6
I00
sg7
F0.0
sg8
I0
sg10
F0.0
sg11
F1.0
sg12
F0.0
sg13
F0.0
sg14
F0.0
sg15
F0.0
sg16
F0.0
sg17
F0.0
sg18
F0.0
sg19
F0.0
sg20
F0.0
sg21
F0.0028330233969491967
sg22
F0.0
sg23
F0.0
sg24
F0.0
sg25
F0.0
sg26
F0.0
sg27
F0.0
sg28
F0.0
sg29
F0.004050554459854647
ssS'LINDHOLM TOD A'
p202
(dp203
g3
F0.0
sg4
F204075.0
sg5
F57727.0
sg6
I00
sg7
F0.03401073650930126
sg8
S'tod.lindholm@enron.com'
p204
sg10
F0.0
sg11
F1.0
sg12
F0.0
sg13
F0.0
sg14
F0.0
sg15
F0.0
sg16
F2630.0
sg17
F0.0
sg18
F0.0
sg19
F0.024999999999999998
sg20
F0.0
sg21
F0.06239468811269247
sg22
F0.043944989985412915
sg23
F0.0
sg24
F0.03487723021490623
sg25
F0.21278317006491743
sg26
F0.0
sg27
F0.008457809489827774
sg28
F0.284785273875751
sg29
F0.0742206969620463
ssS'MEYER JEROME J'
p205
(dp206
g3
F0.0
sg4
F0.0
sg5
F2151.0
sg6
I00
sg7
F0.0
sg8
I0
sg10
F0.0
sg11
F0.989057712249735
sg12
F0.0
sg13
F0.0
sg14
F0.0
sg15
F0.0
sg16
F0.0
sg17
F0.0
sg18
F38346.0
sg19
F0.0
sg20
F0.0
sg21
F0.0
sg22
F0.0
sg23
F0.0
sg24
F0.0
sg25
F0.0
sg26
F0.0
sg27
F2.077060930394096e-05
sg28
F0.0
sg29
F0.0
ssS'LAY KENNETH L'
p207
(dp208
g3
F4273.0
sg4
F202911.0
sg5
F99832.0
sg6
I01
sg7
F0.6996494367627687
sg8
S'kenneth.lay@enron.com'
p209
sg10
F123.0
sg11
F0.9143929920961903
sg12
F0.0
sg13
F2411.0
sg14
F81525000.0
sg15
F36.0
sg16
F10359729.0
sg17
F0.4031002197382249
sg18
F0.0
sg19
F0.875
sg20
F0.5635949962003983
sg21
F1.0
sg22
F0.013008742366515417
sg23
F16.0
sg24
F0.9999999999999999
sg25
F0.9649613321118948
sg26
F0.14802981895633655
sg27
F1.0
sg28
F0.010923154156142175
sg29
F1.0
ssS'BUTTS ROBERT H'
p210
(dp211
g3
F0.0
sg4
F0.0
sg5
F9410.0
sg6
I00
sg7
F0.03401073650930126
sg8
S'bob.butts@enron.com'
p212
sg10
F0.0
sg11
F0.9785982480240476
sg12
F0.0
sg13
F0.0
sg14
F0.0
sg15
F0.0
sg16
F150656.0
sg17
F0.0
sg18
F0.0
sg19
F0.09375
sg20
F0.0
sg21
F0.008503733184866863
sg22
F0.11351293113617525
sg23
F0.0
sg24
F0.028290723273358732
sg25
F0.23533328893920225
sg26
F0.0
sg27
F0.012278722882344889
sg28
F0.21695432819119653
sg29
F0.0
ssS'OLSON CINDY K'
p213
(dp214
g3
F1184.0
sg4
F77716.0
sg5
F63791.0
sg6
I00
sg7
F0.019434706576743576
sg8
S'cindy.olson@enron.com'
p215
sg10
F20.0
sg11
F1.0
sg12
F0.0
sg13
F856.0
sg14
F0.0
sg15
F52.0
sg16
F972.0
sg17
F0.09908062702559692
sg18
F0.0
sg19
F0.09375
sg20
F0.7221457727750635
sg21
F0.05308000121685818
sg22
F0.10922041198374341
sg23
F15.0
sg24
F0.06569225727074413
sg25
F0.296131051474995
sg26
F0.03727369542066028
sg27
F0.012761294337465506
sg28
F0.2626802222683269
sg29
F0.047659709405834055
ssS'MCDONALD REBECCA'
p216
(dp217
g3
F894.0
sg4
F0.0
sg5
F0.0
sg6
I00
sg7
F0.0
sg8
S'rebecca.mcdonald@enron.com'
p218
sg10
F54.0
sg11
F1.0
sg12
F0.0
sg13
F720.0
sg14
F0.0
sg15
F13.0
sg16
F0.0
sg17
F0.3333553806468682
sg18
F0.0
sg19
F0.0
sg20
F0.8044476525425031
sg21
F0.03444030367860544
sg22
F0.0
sg23
F1.0
sg24
F0.0632762743896466
sg25
F0.0
sg26
F0.05857294994675187
sg27
F0.0
sg28
F0.0
sg29
F0.022047645676722374
ssS'CUMBERLAND MICHAEL S'
p219
(dp220
g3
F0.0
sg4
F0.0
sg5
F22344.0
sg6
I00
sg7
F0.05344544308604483
sg8
I0
sg10
F0.0
sg11
F1.0
sg12
F0.0
sg13
F0.0
sg14
F0.0
sg15
F0.0
sg16
F713.0
sg17
F0.0
sg18
F0.0
sg19
F0.040625
sg20
F0.0
sg21
F0.004234161468853704
sg22
F0.07741481796863525
sg23
F0.0
sg24
F0.014086459182801105
sg25
F0.16638710362490078
sg26
F0.0
sg27
F0.007801830967352358
sg28
F0.24141334700251477
sg29
F0.0
ssS'GAHN ROBERT S'
p221
(dp222
g3
F0.0
sg4
F73122.0
sg5
F50080.0
sg6
I00
sg7
F0.0
sg8
I0
sg10
F0.0
sg11
F0.9997026583258808
sg12
F0.0
sg13
F0.0
sg14
F0.0
sg15
F0.0
sg16
F76547.0
sg17
F0.0
sg18
F0.0
sg19
F0.06373374999999999
sg20
F0.0
sg21
F0.006487609325320151
sg22
F0.10895902207268977
sg23
F0.0
sg24
F0.015944647003250437
sg25
F0.17278435790788457
sg26
F0.0
sg27
F0.00869628041840524
sg28
F0.22491014217493543
sg29
F0.002423316334183291
ssS'MCCLELLAN GEORGE'
p223
(dp224
g3
F1744.0
sg4
F0.0
sg5
F228763.0
sg6
I00
sg7
F0.0
sg8
S'george.mcclellan@enron.com'
p225
sg10
F52.0
sg11
F0.9643304133734126
sg12
F0.0
sg13
F1469.0
sg14
F0.0
sg15
F49.0
sg16
F51587.0
sg17
F0.18044466281783564
sg18
F0.0
sg19
F0.11249999999999999
sg20
F0.8413527648898873
sg21
F0.019300743118347317
sg22
F0.13134217444681112
sg23
F0.0
sg24
F0.029881123399523115
sg25
F0.23704036326397648
sg26
F0.05537806176783813
sg27
F0.012734314754762013
sg28
F0.21070986847999543
sg29
F0.014753678076965716
ssS'HERMANN ROBERT J'
p226
(dp227
g3
F0.0
sg4
F0.0
sg5
F48357.0
sg6
I00
sg7
F0.029152059865115366
sg8
S'robert.hermann@enron.com'
p228
sg10
F0.0
sg11
F0.9201001259564443
sg12
F0.0
sg13
F0.0
sg14
F0.0
sg15
F0.0
sg16
F416441.0
sg17
F0.0
sg18
F0.0
sg19
F0.0875
sg20
F0.0
sg21
F0.013604783930499968
sg22
F0.10383222822625625
sg23
F0.0
sg24
F0.03255940679978869
sg25
F0.2363654524871812
sg26
F0.0
sg27
F0.012528617163226658
sg28
F0.21355955792023515
sg29
F0.005458772092451278
ssS'SCRIMSHAW MATTHEW'
p229
(dp230
g3
F0.0
sg4
F0.0
sg5
F0.0
sg6
I00
sg7
F0.0
sg8
S'matthew.scrimshaw@enron.com'
p231
sg10
F0.0
sg11
F1.0
sg12
F0.0
sg13
F0.0
sg14
F0.0
sg15
F0.0
sg16
F0.0
sg17
F0.0
sg18
F0.0
sg19
F0.0
sg20
F0.0
sg21
F0.015466418114831746
sg22
F0.0
sg23
F0.0
sg24
F0.0
sg25
F0.0
sg26
F0.0
sg27
F0.0
sg28
F0.0
sg29
F0.02211332562253875
ssS'GATHMANN WILLIAM D'
p232
(dp233
g3
F0.0
sg4
F0.0
sg5
F0.0
sg6
I00
sg7
F0.0
sg8
I0
sg10
F0.0
sg11
F1.0
sg12
F-72419.0
sg13
F0.0
sg14
F0.0
sg15
F0.0
sg16
F0.0
sg17
F0.0
sg18
F0.0
sg19
F0.0
sg20
F0.0
sg21
F0.03961223600581534
sg22
F0.0
sg23
F0.0
sg24
F0.017885006964647822
sg25
F0.0
sg26
F0.0
sg27
F0.0
sg28
F0.0
sg29
F0.05105818078661284
ssS'HAEDICKE MARK E'
p234
(dp235
g3
F4009.0
sg4
F2157527.0
sg5
F76169.0
sg6
I00
sg7
F0.1911104097341449
sg8
S'mark.haedicke@enron.com'
p236
sg10
F180.0
sg11
F0.733338736086721
sg12
F-329825.0
sg13
F1847.0
sg14
F0.0
sg15
F1941.0
sg16
F52382.0
sg17
F0.005727428619777858
sg18
F0.0
sg19
F0.14375
sg20
F0.4601862628308275
sg21
F0.01635293676381455
sg22
F0.05735142234366787
sg23
F61.0
sg24
F0.03550872955366775
sg25
F0.3366679924913926
sg26
F0.25665601703940366
sg27
F0.037264124311256586
sg28
F0.10227018969885632
sg29
F0.017722813393491816
ssS'BOWEN JR RAYMOND M'
p237
(dp238
g3
F1858.0
sg4
F0.0
sg5
F65907.0
sg6
I01
sg7
F0.1893509857477523
sg8
S'raymond.bowen@enron.com'
p239
sg10
F140.0
sg11
F0.9997622978747204
sg12
F0.0
sg13
F1593.0
sg14
F0.0
sg15
F27.0
sg16
F1621.0
sg17
F0.35511607910576093
sg18
F0.0
sg19
F0.16874999999999998
sg20
F0.8563925433464787
sg21
F0.005132449596190827
sg22
F0.09732352058687686
sg23
F15.0
sg24
F0.017074937334427876
sg25
F0.25070775643459936
sg26
F0.16506922257720982
sg27
F0.025778238085122473
sg28
F0.11009122193256497
sg29
F0.0
ssS'GILLIS JOHN'
p240
(dp241
g3
F0.0
sg4
F0.0
sg5
F0.0
sg6
I00
sg7
F0.0
sg8
I0
sg10
F0.0
sg11
F1.0
sg12
F0.0
sg13
F0.0
sg14
F0.0
sg15
F0.0
sg16
F0.0
sg17
F0.0
sg18
F0.0
sg19
F0.0
sg20
F0.0
sg21
F0.0017438579511113788
sg22
F0.0
sg23
F0.0
sg24
F0.005137486253271473
sg25
F0.0
sg26
F0.0
sg27
F0.0
sg28
F0.0
sg29
F0.00028539916171893266
ssS'FITZGERALD JAY L'
p242
(dp243
g3
F936.0
sg4
F0.0
sg5
F23870.0
sg6
I00
sg7
F0.10813781694605354
sg8
S'jay.fitzgerald@enron.com'
p244
sg10
F1.0
sg11
F1.0
sg12
F0.0
sg13
F723.0
sg14
F0.0
sg15
F16.0
sg16
F285414.0
sg17
F0.2719797936371453
sg18
F0.0
sg19
F0.04375
sg20
F0.7715521035029045
sg21
F0.033012287213227395
sg22
F0.04760843910962969
sg23
F8.0
sg24
F0.06481471570945718
sg25
F0.17921760743229745
sg26
F0.009584664536741215
sg27
F0.013662223137120406
sg28
F0.1484900840826081
sg29
F0.0193447528710521
ssS'MORAN MICHAEL P'
p245
(dp246
g3
F672.0
sg4
F0.0
sg5
F0.0
sg6
I00
sg7
F0.0
sg8
S'michael.moran@enron.com'
p247
sg10
F0.0
sg11
F1.0
sg12
F0.0
sg13
F127.0
sg14
F0.0
sg15
F19.0
sg16
F0.0
sg17
F0.040231705661401995
sg18
F0.0
sg19
F0.0
sg20
F0.18877186171951618
sg21
F0.004502965766008354
sg22
F0.0
sg23
F0.0
sg24
F0.010947388558521806
sg25
F0.0
sg26
F0.0
sg27
F0.0
sg28
F0.0
sg29
F0.0017333857685997687
ssS'REDMOND BRIAN L'
p248
(dp249
g3
F1671.0
sg4
F0.0
sg5
F14689.0
sg6
I00
sg7
F0.0
sg8
S'brian.redmond@enron.com'
p250
sg10
F204.0
sg11
F1.0
sg12
F0.0
sg13
F1063.0
sg14
F0.0
sg15
F221.0
sg16
F0.0
sg17
F0.02895071647284484
sg18
F0.0
sg19
F0.0
sg20
F0.6354181644885769
sg21
F0.16066608568611926
sg22
F0.0
sg23
F49.0
sg24
F0.025829352647467153
sg25
F0.08714447949981012
sg26
F0.2694355697550586
sg27
F0.001076952712719308
sg28
F0.9159703122713329
sg29
F0.218614040183084
ssS'BAZELIDES PHILIP J'
p251
(dp252
g3
F0.0
sg4
F684694.0
sg5
F0.0
sg6
I00
sg7
F0.018220037415697103
sg8
I0
sg10
F0.0
sg11
F1.0
sg12
F0.0
sg13
F0.0
sg14
F0.0
sg15
F0.0
sg16
F874.0
sg17
F0.0
sg18
F0.0
sg19
F0.0
sg20
F0.0
sg21
F0.03257256076848422
sg22
F0.0
sg23
F0.0
sg24
F0.0
sg25
F0.0727265855453909
sg26
F0.0
sg27
F0.008305694469667392
sg28
F0.09911865475817455
sg29
F0.04657107012661789
ssS'BELDEN TIMOTHY N'
p253
(dp254
g3
F7991.0
sg4
F2144013.0
sg5
F17355.0
sg6
I01
sg7
F0.0
sg8
S'tim.belden@enron.com'
p255
sg10
F228.0
sg11
F0.3338536337035931
sg12
F0.0
sg13
F5521.0
sg14
F0.0
sg15
F484.0
sg16
F210698.0
sg17
F0.0686579308286492
sg18
F0.0
sg19
F0.656249875
sg20
F0.6901117590240966
sg21
F0.02261664092653243
sg22
F0.18365226442805738
sg23
F108.0
sg24
F0.010674181432022638
sg25
F0.1925736417645587
sg26
F0.3578274760383387
sg27
F0.05312515446993989
sg28
F0.04103314356713176
sg29
F0.027749078384590085
ssS'DURAN WILLIAM D'
p256
(dp257
g3
F904.0
sg4
F0.0
sg5
F25785.0
sg6
I00
sg7
F0.21479587533335381
sg8
S'w.duran@enron.com'
p258
sg10
F106.0
sg11
F1.0
sg12
F0.0
sg13
F599.0
sg14
F0.0
sg15
F12.0
sg16
F1568.0
sg17
F0.3004442533677271
sg18
F0.0
sg19
F0.09375
sg20
F0.6618524837488103
sg21
F0.03341289745049886
sg22
F0.06895502380732856
sg23
F3.0
sg24
F0.012806186065095239
sg25
F0.18959773517940928
sg26
F0.11608093716719915
sg27
F0.020213085980193102
sg28
F0.1061790105575847
sg29
F0.04226891722184077
ssS'THORN TERENCE H'
p259
(dp260
g3
F266.0
sg4
F16586.0
sg5
F46145.0
sg6
I00
sg7
F0.03886941315348715
sg8
S'terence.thorn@enron.com'
p261
sg10
F0.0
sg11
F1.0
sg12
F0.0
sg13
F73.0
sg14
F0.0
sg15
F41.0
sg16
F426629.0
sg17
F0.010716607595998573
sg18
F0.0
sg19
F0.0
sg20
F0.274122090122331
sg21
F0.09810198224486633
sg22
F0.0
sg23
F0.0
sg24
F0.02474783720621766
sg25
F0.1998572788677337
sg26
F0.0
sg27
F0.00880122462199205
sg28
F0.2570484663926603
sg29
F0.12962694256591517
ssS'FASTOW ANDREW S'
p262
(dp263
g3
F0.0
sg4
F0.0
sg5
F55921.0
sg6
I01
sg7
F0.3373971952608857
sg8
S'andrew.fastow@enron.com'
p264
sg10
F0.0
sg11
F0.6044799288662835
sg12
F0.0
sg13
F0.0
sg14
F0.0
sg15
F0.0
sg16
F277464.0
sg17
F0.0
sg18
F0.0
sg19
F0.1625
sg20
F0.0
sg21
F0.03653856953760082
sg22
F0.10321060238723949
sg23
F0.0
sg24
F0.12155867747969845
sg25
F0.3965757726828513
sg26
F0.0
sg27
F0.023407568997361745
sg28
F0.1917820775667013
sg29
F0.0
ssS'FOY JOE'
p265
(dp266
g3
F57.0
sg4
F181755.0
sg5
F0.0
sg6
I00
sg7
F0.0
sg8
S'tracy.foy@enron.com'
p267
sg10
F0.0
sg11
F1.0
sg12
F0.0
sg13
F2.0
sg14
F0.0
sg15
F13.0
sg16
F0.0
sg17
F0.0009259871684635227
sg18
F0.0
sg19
F0.0
sg20
F0.035047573166325424
sg21
F0.006993147109234891
sg22
F0.0
sg23
F0.0
sg24
F0.0
sg25
F0.0
sg26
F0.0
sg27
F0.0017550730330254715
sg28
F0.0
sg29
F0.009998548985594198
ssS'CALGER CHRISTOPHER F'
p268
(dp269
g3
F2598.0
sg4
F0.0
sg5
F35818.0
sg6
I01
sg7
F0.07293923117078172
sg8
S'christopher.calger@enron.com'
p270
sg10
F199.0
sg11
F0.9250938680841665
sg12
F0.0
sg13
F2188.0
sg14
F0.0
sg15
F144.0
sg16
F486.0
sg17
F0.09145409381866819
sg18
F0.0
sg19
F0.15625
sg20
F0.8412226972693306
sg21
F0.0025662146168857645
sg22
F0.14675091416218863
sg23
F25.0
sg24
F0.0085374347957626
sg25
F0.21614152609025086
sg26
F0.23855165069222578
sg27
F0.015829473510052303
sg28
F0.15456455050577583
sg29
F0.0
ssS'RICE KENNETH D'
p271
(dp272
g3
F905.0
sg4
F0.0
sg5
F46950.0
sg6
I01
sg7
F0.31426134316366705
sg8
S'ken.rice@enron.com'
p273
sg10
F42.0
sg11
F0.0
sg12
F0.0
sg13
F864.0
sg14
F0.0
sg15
F18.0
sg16
F174839.0
sg17
F0.28890799656061905
sg18
F0.0
sg19
F0.21875
sg20
F0.9536038029255218
sg21
F0.459020631162508
sg22
F0.6668560868560868
sg23
F4.0
sg24
F0.18618215497489649
sg25
F0.3785223593440947
sg26
F0.04898828541001066
sg27
F0.004876892714530628
sg28
F0.8785904711638153
sg29
F0.5762767471098494
ssS'KAMINSKI WINCENTY J'
p274
(dp275
g3
F4607.0
sg4
F0.0
sg5
F83585.0
sg6
I00
sg7
F0.06286466797552938
sg8
S'vince.kaminski@enron.com'
p276
sg10
F41.0
sg11
F1.0
sg12
F0.0
sg13
F583.0
sg14
F0.0
sg15
F14368.0
sg16
F4669.0
sg17
F0.00024422524880933456
sg18
F0.0
sg19
F0.049999999999999996
sg20
F0.12640176946930326
sg21
F0.019874474644491505
sg22
F0.07083214868563145
sg23
F171.0
sg24
F0.0085374347957626
sg25
F0.24755817280955458
sg26
F0.22577209797657083
sg27
F0.010494623140082947
sg28
F0.2670229397780838
sg29
F0.024746724620290723
ssS'COX DAVID'
p277
(dp278
g3
F102.0
sg4
F0.0
sg5
F27861.0
sg6
I00
sg7
F0.0
sg8
S'chip.cox@enron.com'
p279
sg10
F0.0
sg11
F0.9882290364132261
sg12
F0.0
sg13
F71.0
sg14
F0.0
sg15
F33.0
sg16
F494.0
sg17
F0.012949790249876234
sg18
F0.0
sg19
F0.09999999999999999
sg20
F0.6952820029613677
sg21
F0.010092286963991382
sg22
F0.13979000532356145
sg23
F4.0
sg24
F0.025612372130190478
sg25
F0.28282181095659154
sg26
F0.004259850905218318
sg27
F0.010635334120453485
sg28
F0.3010231615305467
sg29
F0.0034223152972786145
ssS'OVERDYKE JR JERE C'
p280
(dp281
g3
F0.0
sg4
F0.0
sg5
F18834.0
sg6
I00
sg7
F0.026399328025585405
sg8
S'jere.overdyke@enron.com'
p282
sg10
F0.0
sg11
F1.0
sg12
F0.0
sg13
F0.0
sg14
F0.0
sg15
F0.0
sg16
F176.0
sg17
F0.0
sg18
F0.0
sg19
F0.0
sg20
F0.0
sg21
F0.14880029308851841
sg22
F0.0
sg23
F0.0
sg24
F0.1382643482516302
sg25
F0.08543560541296441
sg26
F0.0
sg27
F0.00241200752496676
sg28
F0.40095754945542883
sg29
F0.15332826138196196
ssS'PEREIRA PAULO V. FERRAZ'
p283
(dp284
g3
F0.0
sg4
F0.0
sg5
F27942.0
sg6
I00
sg7
F0.0
sg8
I0
sg10
F0.0
sg11
F0.9711076348324642
sg12
F0.0
sg13
F0.0
sg14
F0.0
sg15
F0.0
sg16
F0.0
sg17
F0.0
sg18
F101250.0
sg19
F0.0
sg20
F0.0
sg21
F0.0
sg22
F0.0
sg23
F0.0
sg24
F0.0
sg25
F0.0
sg26
F0.0
sg27
F0.0002698151395493809
sg28
F0.0
sg29
F0.0
ssS'STABLER FRANK'
p285
(dp286
g3
F0.0
sg4
F0.0
sg5
F16514.0
sg6
I00
sg7
F0.0
sg8
S'frank.stabler@enron.com'
p287
sg10
F0.0
sg11
F1.0
sg12
F0.0
sg13
F0.0
sg14
F0.0
sg15
F0.0
sg16
F356071.0
sg17
F0.0
sg18
F0.0
sg19
F0.0625
sg20
F0.0
sg21
F0.010420142277110618
sg22
F0.08652860192892582
sg23
F0.0
sg24
F0.03466634655887054
sg25
F0.21552330781870635
sg26
F0.0
sg27
F0.010738598135282097
sg28
F0.22718769522740756
sg29
F0.0
ssS'SKILLING JEFFREY K'
p288
(dp289
g3
F3627.0
sg4
F0.0
sg5
F29336.0
sg6
I01
sg7
F0.37314636627347664
sg8
S'jeff.skilling@enron.com'
p290
sg10
F88.0
sg11
F1.0
sg12
F0.0
sg13
F2042.0
sg14
F0.0
sg15
F108.0
sg16
F22122.0
sg17
F0.11380210821311423
sg18
F0.0
sg19
F0.7
sg20
F0.5623555598457791
sg21
F0.5313302902919438
sg22
F0.12412546181786129
sg23
F30.0
sg24
F0.46361020625410604
sg25
F1.0
sg26
F0.12566560170394037
sg27
F0.08384253915996143
sg28
F0.135012422487355
sg29
F0.5604339348249978
ssS'BLAKE JR. NORMAN P'
p291
(dp292
g3
F0.0
sg4
F0.0
sg5
F1279.0
sg6
I00
sg7
F0.0
sg8
I0
sg10
F0.0
sg11
F0.9675309740422431
sg12
F0.0
sg13
F0.0
sg14
F0.0
sg15
F0.0
sg16
F0.0
sg17
F0.0
sg18
F113784.0
sg19
F0.0
sg20
F0.0
sg21
F0.0
sg22
F0.0
sg23
F0.0
sg24
F0.0
sg25
F0.0
sg26
F0.0
sg27
F1.2350352998484652e-05
sg28
F0.0
sg29
F0.0
ssS'SHERRICK JEFFREY B'
p293
(dp294
g3
F613.0
sg4
F0.0
sg5
F0.0
sg6
I00
sg7
F0.0
sg8
S'jeffrey.sherrick@enron.com'
p295
sg10
F39.0
sg11
F1.0
sg12
F0.0
sg13
F583.0
sg14
F0.0
sg15
F25.0
sg16
F0.0
sg17
F0.14036113499570077
sg18
F0.0
sg19
F0.0
sg20
F0.9499721891436871
sg21
F0.037313481766410556
sg22
F0.0
sg23
F18.0
sg24
F0.02750355074424385
sg25
F0.0
sg26
F0.06070287539936103
sg27
F0.0
sg28
F0.0
sg29
F0.04152943556238337
ssS'PRENTICE JAMES'
p296
(dp297
g3
F0.0
sg4
F564348.0
sg5
F0.0
sg6
I00
sg7
F0.0
sg8
S'james.prentice@enron.com'
p298
sg10
F0.0
sg11
F1.0
sg12
F0.0
sg13
F0.0
sg14
F0.0
sg15
F0.0
sg16
F0.0
sg17
F0.0
sg18
F0.0
sg19
F0.0
sg20
F0.0
sg21
F0.022297663628227184
sg22
F0.0
sg23
F0.0
sg24
F0.014145327765228028
sg25
F0.0
sg26
F0.0
sg27
F0.005449489455816119
sg28
F0.0
sg29
F0.025801242934747674
ssS'GRAY RODNEY'
p299
(dp300
g3
F0.0
sg4
F93585.0
sg5
F0.0
sg6
I00
sg7
F0.0710581459212187
sg8
I0
sg10
F0.0
sg11
F1.0
sg12
F0.0
sg13
F0.0
sg14
F0.0
sg15
F0.0
sg16
F680833.0
sg17
F0.0
sg18
F0.0
sg19
F0.0
sg20
F0.0
sg21
F0.0
sg22
F0.0
sg23
F0.0
sg24
F0.0
sg25
F0.005952713051334614
sg26
F0.0
sg27
F0.011072424604015961
sg28
F0.0060856976016260824
sg29
F0.0
ssS'PICKERING MARK R'
p301
(dp302
g3
F898.0
sg4
F0.0
sg5
F31653.0
sg6
I00
sg7
F0.0
sg8
S'mark.pickering@enron.com'
p303
sg10
F7.0
sg11
F1.0
sg12
F0.0
sg13
F728.0
sg14
F400000.0
sg15
F67.0
sg16
F0.0
sg17
F0.06539957136073715
sg18
F0.0
sg19
F0.0375
sg20
F0.8097628597493541
sg21
F0.0005863969509476242
sg22
F0.041636126315182195
sg23
F0.0
sg24
F0.0
sg25
F0.5894553739995573
sg26
F0.007454739084132056
sg27
F0.013390235339694044
sg28
F0.4983114583394835
sg29
F0.0008384091664981968
ssS'NOLES JAMES L'
p304
(dp305
g3
F0.0
sg4
F774401.0
sg5
F0.0
sg6
I00
sg7
F0.0
sg8
I0
sg10
F0.0
sg11
F1.0
sg12
F-94556.0
sg13
F0.0
sg14
F0.0
sg15
F0.0
sg16
F0.0
sg17
F0.0
sg18
F0.0
sg19
F0.0
sg20
F0.0
sg21
F0.007507725807318001
sg22
F0.0
sg23
F0.0
sg24
F0.03138264483737435
sg25
F0.0
sg26
F0.0
sg27
F0.007477815255965217
sg28
F0.0
sg29
F0.0
ssS'KEAN STEVEN J'
p306
(dp307
g3
F12754.0
sg4
F0.0
sg5
F41953.0
sg6
I00
sg7
F0.05830411973023073
sg8
S'steven.kean@enron.com'
p308
sg10
F140.0
sg11
F1.0
sg12
F0.0
sg13
F3639.0
sg14
F0.0
sg15
F6759.0
sg16
F1231.0
sg17
F0.003240544087772146
sg18
F0.0
sg19
F0.125
sg20
F0.28499579617683546
sg21
F0.12530303861459963
sg22
F0.1101300393738486
sg23
F387.0
sg24
F0.27988617024577256
sg25
F0.3638560982238148
sg26
F0.5612353567625133
sg27
F0.016874521948880294
sg28
F0.24408232527698
sg29
F0.05886879569065025
ssS'FOWLER PEGGY'
p309
(dp310
g3
F517.0
sg4
F0.0
sg5
F0.0
sg6
I00
sg7
F0.0
sg8
S'kulvinder.fowler@enron.com'
p311
sg10
F0.0
sg11
F1.0
sg12
F0.0
sg13
F10.0
sg14
F0.0
sg15
F36.0
sg16
F0.0
sg17
F0.0016719212763924717
sg18
F0.0
sg19
F0.0
sg20
F0.019320228921475332
sg21
F0.03837802904731693
sg22
F0.0
sg23
F0.0
sg24
F0.03794754179296766
sg25
F0.0
sg26
F0.0
sg27
F0.0
sg28
F0.0
sg29
F0.03856303691026629
ssS'WASAFF GEORGE'
p312
(dp313
g3
F400.0
sg4
F831299.0
sg5
F0.0
sg6
I00
sg7
F0.03886941315348715
sg8
S'george.wasaff@enron.com'
p314
sg10
F22.0
sg11
F0.8335443070483673
sg12
F0.0
sg13
F337.0
sg14
F0.0
sg15
F30.0
sg16
F1425.0
sg17
F0.06761249641731154
sg18
F0.0
sg19
F0.040625
sg20
F0.8415360411899314
sg21
F0.04187382883000104
sg22
F0.060467970810634875
sg23
F7.0
sg24
F0.02629555930369509
sg25
F0.23396546976489707
sg26
F0.030883919062832804
sg27
F0.009988384198489079
sg28
F0.2651518607328351
sg29
F0.0485688060317481
ssS'WHITE JR THOMAS E'
p315
(dp316
g3
F0.0
sg4
F0.0
sg5
F81353.0
sg6
I00
sg7
F0.0
sg8
S'thomas.white@enron.com'
p317
sg10
F0.0
sg11
F1.0
sg12
F0.0
sg13
F0.0
sg14
F0.0
sg15
F0.0
sg16
F1085463.0
sg17
F0.0
sg18
F0.0
sg19
F0.056249999999999994
sg20
F0.0
sg21
F0.30837098242849464
sg22
F0.04477173058361969
sg23
F0.0
sg24
F0.9380409863529212
sg25
F0.2857509237278832
sg26
F0.0
sg27
F0.01867866808115385
sg28
F0.1731728842569184
sg29
F0.0377615727132898
ssS'CHRISTODOULOU DIOMEDES'
p318
(dp319
g3
F0.0
sg4
F0.0
sg5
F0.0
sg6
I00
sg7
F0.0
sg8
S'diomedes.christodoulou@enron.com'
p320
sg10
F0.0
sg11
F1.0
sg12
F0.0
sg13
F0.0
sg14
F0.0
sg15
F0.0
sg16
F0.0
sg17
F0.0
sg18
F0.0
sg19
F0.0
sg20
F0.0
sg21
F0.123760442815831
sg22
F0.0
sg23
F0.0
sg24
F0.06440520986277048
sg25
F0.0
sg26
F0.0
sg27
F0.0
sg28
F0.0
sg29
F0.1492691766809175
ssS'ALLEN PHILLIP K'
p321
(dp322
g3
F2902.0
sg4
F2869717.0
sg5
F13868.0
sg6
I00
sg7
F0.05923795738124326
sg8
S'phillip.allen@enron.com'
p323
sg10
F47.0
sg11
F0.12080033420975878
sg12
F-126027.0
sg13
F1407.0
sg14
F0.0
sg15
F2195.0
sg16
F152.0
sg17
F0.0038581392479194294
sg18
F0.0
sg19
F0.521875
sg20
F0.4842833081264874
sg21
F0.03521763903531165
sg22
F0.17917462938161163
sg23
F65.0
sg24
F0.0085374347957626
sg25
F0.18173547457026182
sg26
F0.11927582534611289
sg27
F0.04330292548962511
sg28
F0.04750733009542513
sg29
F0.05035290743226814
ssS'SHARP VICTORIA T'
p324
(dp325
g3
F3136.0
sg4
F187469.0
sg5
F116337.0
sg6
I00
sg7
F0.08204516859024914
sg8
S'vicki.sharp@enron.com'
p326
sg10
F24.0
sg11
F1.0
sg12
F0.0
sg13
F2477.0
sg14
F0.0
sg15
F136.0
sg16
F2401.0
sg17
F0.10962394416063932
sg18
F0.0
sg19
F0.075
sg20
F0.7889559642506889
sg21
F0.010061804422302078
sg22
F0.07324579403505589
sg23
F6.0
sg24
F0.014433506073218966
sg25
F0.2233018794915312
sg26
F0.031948881789137386
sg27
F0.015223195743544988
sg28
F0.16604457806107298
sg29
F0.008183005057821643
ssS'JAEDICKE ROBERT'
p327
(dp328
g3
F0.0
sg4
F0.0
sg5
F0.0
sg6
I00
sg7
F0.0
sg8
I0
sg10
F0.0
sg11
F0.9928660826746826
sg12
F-44093.0
sg13
F0.0
sg14
F0.0
sg15
F0.0
sg16
F0.0
sg17
F0.0
sg18
F108750.0
sg19
F0.0
sg20
F0.0
sg21
F0.008791474531968775
sg22
F0.0
sg23
F0.0
sg24
F0.0029869878077678617
sg25
F0.0
sg26
F0.0
sg27
F0.0008087115430985846
sg28
F0.0
sg29
F0.012569732538217809
ssS'WINOKUR JR. HERBERT S'
p329
(dp330
g3
F0.0
sg4
F0.0
sg5
F1413.0
sg6
I00
sg7
F0.0
sg8
I0
sg10
F0.0
sg11
F0.9928660826746826
sg12
F0.0
sg13
F0.0
sg14
F0.0
sg15
F0.0
sg16
F0.0
sg17
F0.0
sg18
F108579.0
sg19
F0.0
sg20
F0.0
sg21
F0.0
sg22
F0.0
sg23
F0.0
sg24
F0.0
sg25
F0.0
sg26
F0.0
sg27
F0.0008207046145795212
sg28
F0.0
sg29
F0.0
ssS'BROWN MICHAEL'
p331
(dp332
g3
F1486.0
sg4
F0.0
sg5
F49288.0
sg6
I00
sg7
F0.0
sg8
S'michael.brown@enron.com'
p333
sg10
F13.0
sg11
F1.0
sg12
F0.0
sg13
F761.0
sg14
F0.0
sg15
F41.0
sg16
F0.0
sg17
F0.11171696411719062
sg18
F0.0
sg19
F0.0
sg20
F0.5115271134709616
sg21
F0.0
sg22
F0.0
sg23
F1.0
sg24
F0.0
sg25
F0.0
sg26
F0.014909478168264111
sg27
F0.0004759376064029019
sg28
F0.0
sg29
F0.0
ssS'BADUM JAMES P'
p334
(dp335
g3
F0.0
sg4
F178980.0
sg5
F3486.0
sg6
I00
sg7
F0.0
sg8
I0
sg10
F0.0
sg11
F1.0
sg12
F0.0
sg13
F0.0
sg14
F0.0
sg15
F0.0
sg16
F0.0
sg17
F0.0
sg18
F0.0
sg19
F0.0
sg20
F0.0
sg21
F0.005249777856186667
sg22
F0.0
sg23
F0.0
sg24
F0.0
sg25
F0.0
sg26
F0.0
sg27
F0.0017619386319167323
sg28
F0.0
sg29
F0.007505942637650726
ssS'HUGHES JAMES A'
p336
(dp337
g3
F719.0
sg4
F0.0
sg5
F0.0
sg6
I00
sg7
F0.0
sg8
S'james.hughes@enron.com'
p338
sg10
F35.0
sg11
F1.0
sg12
F0.0
sg13
F589.0
sg14
F0.0
sg15
F34.0
sg16
F0.0
sg17
F0.10426887866066462
sg18
F0.0
sg19
F0.0
sg20
F0.8182560319284031
sg21
F0.022773207568515773
sg22
F0.0
sg23
F5.0
sg24
F0.024619667634351448
sg25
F0.0
sg26
F0.04259850905218318
sg27
F0.0
sg28
F0.0
sg29
F0.02197966576826438
ssS'REYNOLDS LAWRENCE'
p339
(dp340
g3
F0.0
sg4
F51365.0
sg5
F8409.0
sg6
I00
sg7
F0.03036672902616184
sg8
I0
sg10
F0.0
sg11
F0.9429286613974602
sg12
F-140264.0
sg13
F0.0
sg14
F0.0
sg15
F0.0
sg16
F202052.0
sg17
F0.0
sg18
F0.0
sg19
F0.012499999999999999
sg20
F0.0
sg21
F0.08596791477301258
sg22
F0.048787544626824685
sg23
F0.0
sg24
F0.01364904326021119
sg25
F0.06875001124851295
sg26
F0.0
sg27
F0.0038091520712097214
sg28
F0.20430670258004485
sg29
F0.12113152106369837
ssS'DIMICHELE RICHARD G'
p341
(dp342
g3
F0.0
sg4
F0.0
sg5
F35812.0
sg6
I00
sg7
F0.13504439081329195
sg8
S'richard.dimichele@enron.com'
p343
sg10
F0.0
sg11
F1.0
sg12
F0.0
sg13
F0.0
sg14
F0.0
sg15
F0.0
sg16
F374689.0
sg17
F0.0
sg18
F0.0
sg19
F0.125
sg20
F0.0
sg21
F0.16937016471446045
sg22
F0.08126790338397621
sg23
F0.0
sg24
F0.0085374347957626
sg25
F0.23647793761664707
sg26
F0.0
sg27
F0.022867475217915895
sg28
F0.11706055105016637
sg29
F0.23849025910505717
ssS'BHATNAGAR SANJAY'
p344
(dp345
g3
F523.0
sg4
F0.0
sg5
F137864.0
sg6
I00
sg7
F0.0
sg8
S'sanjay.bhatnagar@enron.com'
p346
sg10
F0.0
sg11
F1.0
sg12
F-2604490.0
sg13
F463.0
sg14
F0.0
sg15
F29.0
sg16
F0.0
sg17
F0.09609511667210247
sg18
F0.0
sg19
F0.0
sg20
F0.8842643436257116
sg21
F0.3147274577735348
sg22
F0.0
sg23
F1.0
sg24
F0.17643571259504498
sg25
F0.0
sg26
F0.0010649627263045794
sg27
F0.001331250246898427
sg28
F0.0
sg29
F0.44998594402578007
ssS'CARTER REBECCA C'
p347
(dp348
g3
F312.0
sg4
F0.0
sg5
F0.0
sg6
I00
sg7
F0.014576029932557683
sg8
S'rebecca.carter@enron.com'
p349
sg10
F29.0
sg11
F0.9544022833101148
sg12
F-307301.0
sg13
F196.0
sg14
F0.0
sg15
F15.0
sg16
F540.0
sg17
F0.07864717684150185
sg18
F0.0
sg19
F0.0375
sg20
F0.6274863580355572
sg21
F0.0
sg22
F0.120899494720002
sg23
F7.0
sg24
F0.020817461735760136
sg25
F0.23559695408267026
sg26
F0.03833865814696486
sg27
F0.0046114132344779795
sg28
F0.5783274174177384
sg29
F0.0
ssS'BUCHANAN HAROLD G'
p350
(dp351
g3
F1088.0
sg4
F0.0
sg5
F600.0
sg6
I00
sg7
F0.05923795738124326
sg8
S'john.buchanan@enron.com'
p352
sg10
F0.0
sg11
F1.0
sg12
F0.0
sg13
F23.0
sg14
F0.0
sg15
F125.0
sg16
F1215.0
sg17
F0.0011074806534823731
sg18
F0.0
sg19
F0.0625
sg20
F0.021115518575851394
sg21
F0.02065777619005207
sg22
F0.09124213670991377
sg23
F0.0
sg24
F0.012806186065095239
sg25
F0.22318579483792242
sg26
F0.0
sg27
F0.010183846157359545
sg28
F0.2480806388567286
sg29
F0.024032105848123743
ssS'YEAP SOON'
p353
(dp354
g3
F0.0
sg4
F0.0
sg5
F55097.0
sg6
I00
sg7
F0.0
sg8
I0
sg10
F0.0
sg11
F1.0
sg12
F0.0
sg13
F0.0
sg14
F0.0
sg15
F0.0
sg16
F0.0
sg17
F0.0
sg18
F0.0
sg19
F0.0
sg20
F0.0
sg21
F0.0039250192190694545
sg22
F0.0
sg23
F0.0
sg24
F0.0
sg25
F0.0
sg26
F0.0
sg27
F0.0005320308046579429
sg28
F0.0
sg29
F0.005611850618649192
ssS'MURRAY JULIA H'
p355
(dp356
g3
F2192.0
sg4
F0.0
sg5
F57580.0
sg6
I00
sg7
F0.02429338322092947
sg8
S'julia.murray@enron.com'
p357
sg10
F11.0
sg11
F1.0
sg12
F0.0
sg13
F395.0
sg14
F0.0
sg15
F45.0
sg16
F330.0
sg17
F0.05283271233400211
sg18
F0.0
sg19
F0.049999999999999996
sg20
F0.17999455060214803
sg21
F0.012165751396281635
sg22
F0.0947826094094104
sg23
F2.0
sg24
F0.013344200198161538
sg25
F0.20632832339564708
sg26
F0.013844515441959533
sg27
F0.007842754185497455
sg28
F0.2978025403571856
sg29
F0.011659296693550415
ssS'GARLAND C KEVIN'
p358
(dp359
g3
F209.0
sg4
F0.0
sg5
F48405.0
sg6
I00
sg7
F0.07293923117078172
sg8
S'kevin.garland@enron.com'
p360
sg10
F10.0
sg11
F1.0
sg12
F0.0
sg13
F178.0
sg14
F0.0
sg15
F44.0
sg16
F60814.0
sg17
F0.024349253498006724
sg18
F0.0
sg19
F0.10625
sg20
F0.8507001850371717
sg21
F0.018247843141279474
sg22
F0.10443006958111949
sg23
F27.0
sg24
F0.017606854606253185
sg25
F0.20872380671275256
sg26
F0.039403620873269436
sg27
F0.015126227608431004
sg28
F0.15619945273147373
sg29
F0.01852331684658003
ssS'DODSON KEITH'
p361
(dp362
g3
F176.0
sg4
F0.0
sg5
F28164.0
sg6
I00
sg7
F0.0
sg8
S'keith.dodson@enron.com'
p363
sg10
F10.0
sg11
F1.0
sg12
F0.0
sg13
F114.0
sg14
F0.0
sg15
F14.0
sg16
F774.0
sg17
F0.04901117798796216
sg18
F0.0
sg19
F0.008749999999999999
sg20
F0.6469861660079052
sg21
F0.0
sg22
F0.04210722185236236
sg23
F3.0
sg24
F0.0
sg25
F0.19887640853879116
sg26
F0.013844515441959533
sg27
F0.0030894325947522895
sg28
F0.7286898101338503
sg29
F0.0
ssS'YEAGER F SCOTT'
p364
(dp365
g3
F0.0
sg4
F0.0
sg5
F53947.0
sg6
I01
sg7
F0.0
sg8
S'scott.yeager@enron.com'
p366
sg10
F0.0
sg11
F1.0
sg12
F0.0
sg13
F0.0
sg14
F0.0
sg15
F0.0
sg16
F147950.0
sg17
F0.0
sg18
F0.0
sg19
F0.0
sg20
F0.0
sg21
F0.24200242565283647
sg22
F0.0
sg23
F0.0
sg24
F0.2422625750134097
sg25
F0.14254385570227615
sg26
F0.0
sg27
F0.0034791494803393433
sg28
F0.46378165460688464
sg29
F0.24189062286016133
ssS'HIRKO JOSEPH'
p367
(dp368
g3
F0.0
sg4
F10259.0
sg5
F77978.0
sg6
I01
sg7
F0.0
sg8
S'joe.hirko@enron.com'
p369
sg10
F0.0
sg11
F1.0
sg12
F0.0
sg13
F0.0
sg14
F0.0
sg15
F0.0
sg16
F2856.0
sg17
F0.0
sg18
F0.0
sg19
F0.0
sg20
F0.0
sg21
F0.6264714953211844
sg22
F0.0
sg23
F0.0
sg24
F0.0
sg25
F0.0
sg26
F0.0
sg27
F0.0008796174399460223
sg28
F0.0
sg29
F0.8957063016414396
ssS'DIETRICH JANET R'
p370
(dp371
g3
F2572.0
sg4
F0.0
sg5
F3475.0
sg6
I00
sg7
F0.10813781694605354
sg8
S'janet.dietrich@enron.com'
p372
sg10
F305.0
sg11
F1.0
sg12
F0.0
sg13
F1902.0
sg14
F0.0
sg15
F63.0
sg16
F473.0
sg17
F0.1817139581541989
sg18
F0.0
sg19
F0.075
sg20
F0.7386562203059885
sg21
F0.037977683521496344
sg22
F0.08186866166027633
sg23
F14.0
sg24
F0.021343620860857837
sg25
F0.22506024703534191
sg26
F0.3397231096911608
sg27
F0.013619803199104502
sg28
F0.1870536173015967
sg29
F0.04512640245316927
ssS'DERRICK JR. JAMES V'
p373
(dp374
g3
F2181.0
sg4
F0.0
sg5
F51124.0
sg6
I00
sg7
F0.09406397983143891
sg8
S'james.derrick@enron.com'
p375
sg10
F64.0
sg11
F0.6336020061716945
sg12
F-1787380.0
sg13
F1401.0
sg14
F0.0
sg15
F909.0
sg16
F7482.0
sg17
F0.009276680032577634
sg18
F0.0
sg19
F0.09999999999999999
sg20
F0.6416309147967102
sg21
F0.1798391157106287
sg22
F0.27943564902117013
sg23
F20.0
sg24
F0.12108230938806887
sg25
F0.44307892496611945
sg26
F0.08945686900958467
sg27
F0.00532041426540897
sg28
F0.9427006276055107
sg29
F0.2571274677725741
ssS'FREVERT MARK A'
p376
(dp377
g3
F3275.0
sg4
F6426990.0
sg5
F86987.0
sg6
I00
sg7
F0.31426134316366705
sg8
S'mark.frevert@enron.com'
p378
sg10
F242.0
sg11
F0.03920087570261943
sg12
F0.0
sg13
F2979.0
sg14
F2000000.0
sg15
F21.0
sg16
F7427621.0
sg17
F0.8538263112639725
sg18
F0.0
sg19
F0.25
sg20
F0.9085775673834438
sg21
F0.29774306202486583
sg22
F0.022310312361916388
sg23
F6.0
sg24
F0.283752460930297
sg25
F0.9547125869959991
sg26
F0.2641107561235357
sg27
F0.16659486756602535
sg28
F0.06487078941733798
sg29
F0.3037557167172697
ssS'PAI LOU L'
p379
(dp380
g3
F0.0
sg4
F0.0
sg5
F32047.0
sg6
I00
sg7
F0.0
sg8
S'lou.pai@enron.com'
p381
sg10
F0.0
sg11
F1.0
sg12
F0.0
sg13
F0.0
sg14
F0.0
sg15
F0.0
sg16
F1829457.0
sg17
F0.0
sg18
F0.0
sg19
F0.125
sg20
F0.0
sg21
F0.4849906774735727
sg22
F0.06161737662869609
sg23
F0.0
sg24
F0.572682444169348
sg25
F0.23565994575517116
sg26
F0.0
sg27
F0.03016018967901954
sg28
F0.08844837473101008
sg29
F0.4473039255645913
ssS'BAY FRANKLIN R'
p382
(dp383
g3
F0.0
sg4
F260455.0
sg5
F129142.0
sg6
I00
sg7
F0.0
sg8
S'frank.bay@enron.com'
p384
sg10
F0.0
sg11
F0.9424603910642264
sg12
F-82782.0
sg13
F0.0
sg14
F0.0
sg15
F0.0
sg16
F69.0
sg17
F0.0
sg18
F0.0
sg19
F0.049999999999999996
sg20
F0.0
sg21
F0.0012831174896525313
sg22
F0.09300741657162372
sg23
F0.0
sg24
F0.009876644238798067
sg25
F0.21567538771374423
sg26
F0.0
sg27
F0.007992445485092849
sg28
F0.30546331238578
sg29
F0.0
ssS'HAYSLETT RODERICK J'
p385
(dp386
g3
F2649.0
sg4
F0.0
sg5
F0.0
sg6
I00
sg7
F0.0
sg8
S'rod.hayslett@enron.com'
p387
sg10
F35.0
sg11
F1.0
sg12
F0.0
sg13
F571.0
sg14
F0.0
sg15
F1061.0
sg16
F0.0
sg17
F0.003239209590718534
sg18
F0.0
sg19
F0.0
sg20
F0.21530641069165604
sg21
F0.007058897361148561
sg22
F0.0
sg23
F38.0
sg24
F0.023483957870959794
sg25
F0.0
sg26
F0.0777422790202343
sg27
F0.0
sg28
F0.0
sg29
F0.0
ssS'FUGH JOHN L'
p388
(dp389
g3
F0.0
sg4
F50591.0
sg5
F0.0
sg6
I00
sg7
F0.0
sg8
I0
sg10
F0.0
sg11
F1.0
sg12
F0.0
sg13
F0.0
sg14
F0.0
sg15
F0.0
sg16
F0.0
sg17
F0.0
sg18
F0.0
sg19
F0.0
sg20
F0.0
sg21
F0.003591482790966042
sg22
F0.0
sg23
F0.0
sg24
F0.0
sg25
F0.0
sg26
F0.0
sg27
F0.0004885197095749312
sg28
F0.0
sg29
F0.005134972288652648
ssS'FALLON JAMES B'
p390
(dp391
g3
F1755.0
sg4
F0.0
sg5
F95924.0
sg6
I00
sg7
F0.07275324102884227
sg8
S'jim.fallon@enron.com'
p392
sg10
F42.0
sg11
F1.0
sg12
F0.0
sg13
F1604.0
sg14
F0.0
sg15
F75.0
sg16
F401481.0
sg17
F0.12872456291200918
sg18
F0.0
sg19
F0.3125
sg20
F0.9129143930059263
sg21
F0.04749328640854531
sg22
F0.13087382197148975
sg23
F37.0
sg24
F0.09430774001953976
sg25
F0.27409296491003887
sg26
F0.08413205537806177
sg27
F0.03549968470871702
sg28
F0.08740002261219627
sg29
F0.027374126247103794
ssS'KOENIG MARK E'
p393
(dp394
g3
F2374.0
sg4
F0.0
sg5
F127017.0
sg6
I01
sg7
F0.05830411973023073
sg8
S'mark.koenig@enron.com'
p395
sg10
F53.0
sg11
F1.0
sg12
F0.0
sg13
F2271.0
sg14
F0.0
sg15
F61.0
sg16
F150458.0
sg17
F0.2240813047094146
sg18
F0.0
sg19
F0.0875
sg20
F0.9555187876287548
sg21
F0.039096964985476095
sg22
F0.08486612352152748
sg23
F15.0
sg24
F0.08456468478482211
sg25
F0.27891452749946455
sg26
F0.0724174653887114
sg27
F0.0153285455099355
sg28
F0.20597207300695486
sg29
F0.01955658234169037
ssS'SAVAGE FRANK'
p396
(dp397
g3
F0.0
sg4
F0.0
sg5
F0.0
sg6
I00
sg7
F0.0
sg8
I0
sg10
F0.0
sg11
F0.9653907988446478
sg12
F0.0
sg13
F0.0
sg14
F0.0
sg15
F0.0
sg16
F0.0
sg17
F0.0
sg18
F125034.0
sg19
F0.0
sg20
F0.0
sg21
F0.0
sg22
F0.0
sg23
F0.0
sg24
F0.0
sg25
F0.0
sg26
F0.0
sg27
F3.621096461635453e-05
sg28
F0.0
sg29
F0.0
ssS'IZZO LAWRENCE L'
p398
(dp399
g3
F496.0
sg4
F0.0
sg5
F28093.0
sg6
I00
sg7
F0.06073345805232368
sg8
S'larry.izzo@enron.com'
p400
sg10
F28.0
sg11
F1.0
sg12
F0.0
sg13
F437.0
sg14
F0.0
sg15
F19.0
sg16
F1553729.0
sg17
F0.13843508168529664
sg18
F0.0
sg19
F0.0
sg20
F0.8800403225806452
sg21
F0.1185088730667461
sg22
F0.0
sg23
F5.0
sg24
F0.24758730264968232
sg25
F0.07673645544059075
sg26
F0.035143769968051124
sg27
F0.01911548818951386
sg28
F0.045441691910603536
sg29
F0.0630356292744369
ssS'TILNEY ELIZABETH A'
p401
(dp402
g3
F460.0
sg4
F0.0
sg5
F0.0
sg6
I00
sg7
F0.05344544308604483
sg8
S'elizabeth.tilney@enron.com'
p403
sg10
F10.0
sg11
F0.8359199015176981
sg12
F0.0
sg13
F379.0
sg14
F0.0
sg15
F19.0
sg16
F152055.0
sg17
F0.1200615468163099
sg18
F0.0
sg19
F0.0375
sg20
F0.822970351208835
sg21
F0.023784160961829465
sg22
F0.14456037036202438
sg23
F11.0
sg24
F0.039073564321276406
sg25
F0.22257477561466374
sg26
F0.02236421725239617
sg27
F0.0038566415442719162
sg28
F0.6532882109969861
sg29
F0.017213327998196363
ssS'MARTIN AMANDA K'
p404
(dp405
g3
F1522.0
sg4
F85430.0
sg5
F8211.0
sg6
I00
sg7
F1.0
sg8
S'a..martin@enron.com'
p406
sg10
F8.0
sg11
F1.0
sg12
F0.0
sg13
F477.0
sg14
F0.0
sg15
F230.0
sg16
F2818454.0
sg17
F0.012482709634005008
sg18
F0.0
sg19
F0.0
sg20
F0.3130448314123594
sg21
F0.04215643884743983
sg22
F0.0
sg23
F0.0
sg24
F0.0
sg25
F0.3144967235331489
sg26
F0.008519701810436636
sg27
F0.08118030904136704
sg28
F0.04385343098119331
sg29
F0.06027375261671699
ssS'BUY RICHARD B'
p407
(dp408
g3
F3523.0
sg4
F649584.0
sg5
F0.0
sg6
I00
sg7
F0.14962042074584964
sg8
S'rick.buy@enron.com'
p409
sg10
F156.0
sg11
F0.80171647757981
sg12
F0.0
sg13
F2333.0
sg14
F0.0
sg15
F1053.0
sg16
F400572.0
sg17
F0.013335358419909868
sg18
F0.0
sg19
F0.11249999999999999
sg20
F0.6614620106771391
sg21
F0.070137742399839
sg22
F0.07352763634789121
sg23
F71.0
sg24
F0.061080862399667674
sg25
F0.29745207683544234
sg26
F0.24174653887113953
sg27
F0.02274726447164683
sg28
F0.14802190212166805
sg29
F0.07403006208385232
ssS'GRAMM WENDY L'
p410
(dp411
g3
F0.0
sg4
F0.0
sg5
F0.0
sg6
I00
sg7
F0.0
sg8
I0
sg10
F0.0
sg11
F1.0
sg12
F0.0
sg13
F0.0
sg14
F0.0
sg15
F0.0
sg16
F0.0
sg17
F0.0
sg18
F119292.0
sg19
F0.0
sg20
F0.0
sg21
F0.0
sg22
F0.0
sg23
F0.0
sg24
F0.0
sg25
F0.0
sg26
F0.0
sg27
F0.0011519142376037773
sg28
F0.0
sg29
F0.0
ssS'CAUSEY RICHARD A'
p412
(dp413
g3
F1892.0
sg4
F0.0
sg5
F30674.0
sg6
I01
sg7
F0.06802147301860252
sg8
S'richard.causey@enron.com'
p414
sg10
F58.0
sg11
F0.9329411771420157
sg12
F0.0
sg13
F1585.0
sg14
F0.0
sg15
F49.0
sg16
F307895.0
sg17
F0.19469352659378453
sg18
F0.0
sg19
F0.125
sg20
F0.8367793334333168
sg21
F0.05094805591634369
sg22
F0.10298533393123491
sg23
F12.0
sg24
F0.1694970103024761
sg25
F0.3736207073424893
sg26
F0.07454739084132056
sg27
F0.01804520795054119
sg28
F0.23437279503784803
sg29
F0.0
ssS'TAYLOR MITCHELL S'
p415
(dp416
g3
F533.0
sg4
F227449.0
sg5
F0.0
sg6
I00
sg7
F0.0
sg8
S'mitchell.taylor@enron.com'
p417
sg10
F0.0
sg11
F1.0
sg12
F0.0
sg13
F300.0
sg14
F0.0
sg15
F29.0
sg16
F0.0
sg17
F0.06226465443116791
sg18
F0.0
sg19
F0.075
sg20
F0.562207787189648
sg21
F0.07625823766763311
sg22
F0.10568015939040674
sg23
F0.0
sg24
F0.038193313043882356
sg25
F0.23866104900932097
sg26
F0.0
sg27
F0.01055103499482661
sg28
F0.2560499137355118
sg29
F0.09261716650192335
ssS'DONAHUE JR JEFFREY M'
p418
(dp419
g3
F865.0
sg4
F0.0
sg5
F96268.0
sg6
I00
sg7
F0.0
sg8
S'jeff.donahue@enron.com'
p420
sg10
F188.0
sg11
F0.9143929920961903
sg12
F0.0
sg13
F772.0
sg14
F0.0
sg15
F22.0
sg16
F891.0
sg17
F0.21120925506136168
sg18
F0.0
sg19
F0.09999999999999999
sg20
F0.8914643986190659
sg21
F0.022011530912249826
sg22
F0.17580585244054686
sg23
F11.0
sg24
F0.021343620860857837
sg25
F0.25070775643459936
sg26
F0.2119275825346113
sg27
F0.008456563832644972
sg28
F0.33559230276301066
sg29
F0.022298574512268174
ssS'GLISAN JR BEN F'
p421
(dp422
g3
F873.0
sg4
F0.0
sg5
F125978.0
sg6
I01
sg7
F0.01380311165200059
sg8
S'ben.glisan@enron.com'
p423
sg10
F52.0
sg11
F1.0
sg12
F0.0
sg13
F874.0
sg14
F0.0
sg15
F16.0
sg16
F200308.0
sg17
F0.3287833190025795
sg18
F0.0
sg19
F0.075
sg20
F1.0
sg21
F0.015853080094883988
sg22
F0.09076023906612046
sg23
F6.0
sg24
F0.026678374446726775
sg25
F0.24744478779905296
sg26
F0.06176783812566561
sg27
F0.01228550157492107
sg28
F0.2279940799960468
sg29
F0.011200759837784508
ss.