(dp0
S'METTS MARK'
p1
(dp2
S'to_messages'
p3
F807.0
sS'deferral_payments'
p4
F0.0
sS'expenses'
p5
F94299.0
sS'poi'
p6
I00
sS'long_term_incentive'
p7
F0.0
sS'email_address'
p8
S'mark.metts@enron.com'
p9
sS'from_poi_to_this_person'
p10
F38.0
sS'deferred_income'
p11
F0.0
sS'restricted_stock_deferred'
p12
F0.0
sS'shared_receipt_with_poi'
p13
F702.0
sS'loan_advances'
p14
F0.0
sS'from_messages'
p15
F29.0
sS'other'
p16
F1740.0
sS'shared_receipt_over_from_messages'
p17
F24.20689655172414
sS'director_fees'
p18
F0.0
sS'bonus'
p19
F600000.0
sS'shared_receipt_over_to_messages'
p20
F0.8698884758364313
sS'total_stock_value'
p21
F585062.0
sS'bonus_over_total_salary'
p22
F0.5650638004119315
sS'from_this_person_to_poi'
p23
F1.0
sS'restricted_stock'
p24
F585062.0
sS'salary'
p25
F365788.0
sS'sum_total_poi_messages'
p26
F39.0
sS'total_payments'
p27
F1061827.0
sS'salary_over_total_salary'
p28
F0.34448926237513267
sS'exercised_stock_options'
p29
F0.0
ssS'BAXTER JOHN C'
p30
(dp31
g3
F0.0
sg4
F1295738.0
sg5
F11200.0
sg6
I00
sg7
F1586055.0
sg8
I0
sg10
F0.0
sg11
F-1386055.0
sg12
F0.0
sg13
F0.0
sg14
F0.0
sg15
F0.0
sg16
F2660303.0
sg17
F0.0
sg18
F0.0
sg19
F1200000.0
sg20
F0.0
sg21
F10623258.0
sg22
F0.21297957898551792
sg23
F0.0
sg24
F3942714.0
sg25
F267102.0
sg26
F0.0
sg27
F5634343.0
sg28
F0.047406059588491506
sg29
F6680544.0
ssS'ELLIOTT STEVEN'
p32
(dp33
g3
F0.0
sg4
F0.0
sg5
F78552.0
sg6
I00
sg7
F0.0
sg8
S'steven.elliott@enron.com'
p34
sg10
F0.0
sg11
F-400729.0
sg12
F0.0
sg13
F0.0
sg14
F0.0
sg15
F0.0
sg16
F12961.0
sg17
F0.0
sg18
F0.0
sg19
F350000.0
sg20
F0.0
sg21
F6678735.0
sg22
F1.6530877317274766
sg23
F0.0
sg24
F1788391.0
sg25
F170941.0
sg26
F0.0
sg27
F211725.0
sg28
F0.8073727712835046
sg29
F4890344.0
ssS'CORDES WILLIAM R'
p35
(dp36
g3
F764.0
sg4
F0.0
sg5
F0.0
sg6
I00
sg7
F0.0
sg8
S'bill.cordes@enron.com'
p37
sg10
F10.0
sg11
F0.0
sg12
F0.0
sg13
F58.0
sg14
F0.0
sg15
F12.0
sg16
F0.0
sg17
F4.833333333333333
sg18
F0.0
sg19
F0.0
sg20
F0.07591623036649214
sg21
F1038185.0
sg22
F0.0
sg23
F0.0
sg24
F386335.0
sg25
F0.0
sg26
F10.0
sg27
F0.0
sg28
F0.0
sg29
F651850.0
ssS'HANNON KEVIN P'
p38
(dp39
g3
F1045.0
sg4
F0.0
sg5
F34039.0
sg6
I01
sg7
F1617011.0
sg8
S'kevin.hannon@enron.com'
p40
sg10
F32.0
sg11
F-3117011.0
sg12
F0.0
sg13
F1035.0
sg14
F0.0
sg15
F32.0
sg16
F11350.0
sg17
F32.34375
sg18
F0.0
sg19
F1500000.0
sg20
F0.9904306220095693
sg21
F6391065.0
sg22
F5.196028848352166
sg23
F21.0
sg24
F853064.0
sg25
F243293.0
sg26
F53.0
sg27
F288682.0
sg28
F0.8427716310680957
sg29
F5538001.0
ssS'MORDAUNT KRISTINA M'
p41
(dp42
g3
F0.0
sg4
F0.0
sg5
F35018.0
sg6
I00
sg7
F0.0
sg8
S'kristina.mordaunt@enron.com'
p43
sg10
F0.0
sg11
F0.0
sg12
F0.0
sg13
F0.0
sg14
F0.0
sg15
F0.0
sg16
F1411.0
sg17
F0.0
sg18
F0.0
sg19
F325000.0
sg20
F0.0
sg21
F208510.0
sg22
F0.5170861163173286
sg23
F0.0
sg24
F208510.0
sg25
F267093.0
sg26
F0.0
sg27
F628522.0
sg28
F0.42495409866321304
sg29
F0.0
ssS'MEYER ROCKFORD G'
p44
(dp45
g3
F232.0
sg4
F1848227.0
sg5
F0.0
sg6
I00
sg7
F0.0
sg8
S'rockford.meyer@enron.com'
p46
sg10
F0.0
sg11
F0.0
sg12
F0.0
sg13
F22.0
sg14
F0.0
sg15
F28.0
sg16
F0.0
sg17
F0.7857142857142857
sg18
F0.0
sg19
F0.0
sg20
F0.09482758620689655
sg21
F955873.0
sg22
F0.0
sg23
F0.0
sg24
F462384.0
sg25
F0.0
sg26
F0.0
sg27
F1848227.0
sg28
F0.0
sg29
F493489.0
ssS'MCMAHON JEFFREY'
p47
(dp48
g3
F2355.0
sg4
F0.0
sg5
F137108.0
sg6
I00
sg7
F694862.0
sg8
S'jeffrey.mcmahon@enron.com'
p49
sg10
F58.0
sg11
F0.0
sg12
F0.0
sg13
F2228.0
sg14
F0.0
sg15
F48.0
sg16
F297353.0
sg17
F46.416666666666664
sg18
F0.0
sg19
F2600000.0
sg20
F0.9460721868365181
sg21
F1662855.0
sg22
F0.6341817628350461
sg23
F26.0
sg24
F558801.0
sg25
F370448.0
sg26
F84.0
sg27
F4099771.0
sg28
F0.09035821756873738
sg29
F1104054.0
ssS'HORTON STANLEY C'
p50
(dp51
g3
F2350.0
sg4
F3131860.0
sg5
F0.0
sg6
I00
sg7
F0.0
sg8
S'stanley.horton@enron.com'
p52
sg10
F44.0
sg11
F0.0
sg12
F0.0
sg13
F1074.0
sg14
F0.0
sg15
F1073.0
sg16
F0.0
sg17
F1.0009319664492078
sg18
F0.0
sg19
F0.0
sg20
F0.4570212765957447
sg21
F7256648.0
sg22
F0.0
sg23
F15.0
sg24
F2046079.0
sg25
F0.0
sg26
F59.0
sg27
F3131860.0
sg28
F0.0
sg29
F5210569.0
ssS'PIPER GREGORY F'
p53
(dp54
g3
F1238.0
sg4
F1130036.0
sg5
F43057.0
sg6
I00
sg7
F0.0
sg8
S'greg.piper@enron.com'
p55
sg10
F61.0
sg11
F-33333.0
sg12
F-409554.0
sg13
F742.0
sg14
F0.0
sg15
F222.0
sg16
F778.0
sg17
F3.3423423423423424
sg18
F0.0
sg19
F400000.0
sg20
F0.5993537964458805
sg21
F880290.0
sg22
F0.23019873632403695
sg23
F48.0
sg24
F409554.0
sg25
F197091.0
sg26
F109.0
sg27
F1737629.0
sg28
F0.11342524785210191
sg29
F880290.0
ssS'HUMPHREY GENE E'
p56
(dp57
g3
F128.0
sg4
F2964506.0
sg5
F4994.0
sg6
I00
sg7
F0.0
sg8
S'gene.humphrey@enron.com'
p58
sg10
F10.0
sg11
F0.0
sg12
F0.0
sg13
F119.0
sg14
F0.0
sg15
F17.0
sg16
F0.0
sg17
F7.0
sg18
F0.0
sg19
F0.0
sg20
F0.9296875
sg21
F2282768.0
sg22
F0.0
sg23
F17.0
sg24
F0.0
sg25
F130724.0
sg26
F27.0
sg27
F3100224.0
sg28
F0.04216598542556925
sg29
F2282768.0
ssS'UMANOFF ADAM S'
p59
(dp60
g3
F111.0
sg4
F0.0
sg5
F53122.0
sg6
I00
sg7
F0.0
sg8
S'adam.umanoff@enron.com'
p61
sg10
F12.0
sg11
F0.0
sg12
F0.0
sg13
F41.0
sg14
F0.0
sg15
F18.0
sg16
F0.0
sg17
F2.2777777777777777
sg18
F0.0
sg19
F788750.0
sg20
F0.36936936936936937
sg21
F0.0
sg22
F0.6977242027809893
sg23
F0.0
sg24
F0.0
sg25
F288589.0
sg26
F12.0
sg27
F1130461.0
sg28
F0.2552843485976075
sg29
F0.0
ssS'BLACHMAN JEREMY M'
p62
(dp63
g3
F2475.0
sg4
F0.0
sg5
F84208.0
sg6
I00
sg7
F831809.0
sg8
S'jeremy.blachman@enron.com'
p64
sg10
F25.0
sg11
F0.0
sg12
F0.0
sg13
F2326.0
sg14
F0.0
sg15
F14.0
sg16
F272.0
sg17
F166.14285714285714
sg18
F0.0
sg19
F850000.0
sg20
F0.9397979797979797
sg21
F954354.0
sg22
F0.4218707735372872
sg23
F2.0
sg24
F189041.0
sg25
F248546.0
sg26
F27.0
sg27
F2014835.0
sg28
F0.12335799209364538
sg29
F765313.0
ssS'SUNDE MARTIN'
p65
(dp66
g3
F2647.0
sg4
F0.0
sg5
F0.0
sg6
I00
sg7
F476451.0
sg8
S'marty.sunde@enron.com'
p67
sg10
F37.0
sg11
F0.0
sg12
F0.0
sg13
F2565.0
sg14
F0.0
sg15
F38.0
sg16
F111122.0
sg17
F67.5
sg18
F0.0
sg19
F700000.0
sg20
F0.9690215338118625
sg21
F698920.0
sg22
F0.4530571324460749
sg23
F13.0
sg24
F698920.0
sg25
F257486.0
sg26
F50.0
sg27
F1545059.0
sg28
F0.16665124115001434
sg29
F0.0
ssS'GIBBS DANA R'
p68
(dp69
g3
F169.0
sg4
F504610.0
sg5
F0.0
sg6
I00
sg7
F461912.0
sg8
S'dana.gibbs@enron.com'
p70
sg10
F0.0
sg11
F0.0
sg12
F0.0
sg13
F23.0
sg14
F0.0
sg15
F12.0
sg16
F0.0
sg17
F1.9166666666666667
sg18
F0.0
sg19
F0.0
sg20
F0.13609467455621302
sg21
F2218275.0
sg22
F0.0
sg23
F0.0
sg24
F0.0
sg25
F0.0
sg26
F0.0
sg27
F966522.0
sg28
F0.0
sg29
F2218275.0
ssS'LOWRY CHARLES P'
p71
(dp72
g3
F0.0
sg4
F0.0
sg5
F0.0
sg6
I00
sg7
F0.0
sg8
I0
sg10
F0.0
sg11
F0.0
sg12
F-153686.0
sg13
F0.0
sg14
F0.0
sg15
F0.0
sg16
F0.0
sg17
F0.0
sg18
F0.0
sg19
F0.0
sg20
F0.0
sg21
F372205.0
sg22
F0.0
sg23
F0.0
sg24
F153686.0
sg25
F0.0
sg26
F0.0
sg27
F0.0
sg28
F0.0
sg29
F372205.0
ssS'COLWELL WESLEY'
p73
(dp74
g3
F1758.0
sg4
F27610.0
sg5
F16514.0
sg6
I01
sg7
F0.0
sg8
S'wes.colwell@enron.com'
p75
sg10
F240.0
sg11
F-144062.0
sg12
F0.0
sg13
F1132.0
sg14
F0.0
sg15
F40.0
sg16
F101740.0
sg17
F28.3
sg18
F0.0
sg19
F1200000.0
sg20
F0.6439135381114903
sg21
F698242.0
sg22
F0.8051832328643588
sg23
F11.0
sg24
F698242.0
sg25
F288542.0
sg26
F251.0
sg27
F1490344.0
sg28
F0.19360765031428986
sg29
F0.0
ssS'MULLER MARK S'
p76
(dp77
g3
F136.0
sg4
F842924.0
sg5
F0.0
sg6
I00
sg7
F1725545.0
sg8
S's..muller@enron.com'
p78
sg10
F12.0
sg11
F-719000.0
sg12
F0.0
sg13
F114.0
sg14
F0.0
sg15
F16.0
sg16
F947.0
sg17
F7.125
sg18
F0.0
sg19
F1100000.0
sg20
F0.8382352941176471
sg21
F1416848.0
sg22
F0.3435277804670104
sg23
F0.0
sg24
F360528.0
sg25
F251654.0
sg26
F12.0
sg27
F3202070.0
sg28
F0.07859103642331366
sg29
F1056320.0
ssS'JACKSON CHARLENE R'
p79
(dp80
g3
F258.0
sg4
F0.0
sg5
F10181.0
sg6
I00
sg7
F0.0
sg8
S'charlene.jackson@enron.com'
p81
sg10
F25.0
sg11
F0.0
sg12
F0.0
sg13
F117.0
sg14
F0.0
sg15
F56.0
sg16
F2435.0
sg17
F2.0892857142857144
sg18
F0.0
sg19
F250000.0
sg20
F0.45348837209302323
sg21
F725735.0
sg22
F0.453577273238578
sg23
F19.0
sg24
F540672.0
sg25
F288558.0
sg26
F44.0
sg27
F551174.0
sg28
F0.5235334032447104
sg29
F185063.0
ssS'WESTFAHL RICHARD K'
p82
(dp83
g3
F0.0
sg4
F0.0
sg5
F51870.0
sg6
I00
sg7
F256191.0
sg8
S'dick.westfahl@enron.com'
p84
sg10
F0.0
sg11
F-10800.0
sg12
F0.0
sg13
F0.0
sg14
F0.0
sg15
F0.0
sg16
F401130.0
sg17
F0.0
sg18
F0.0
sg19
F0.0
sg20
F0.0
sg21
F384930.0
sg22
F0.0
sg23
F0.0
sg24
F384930.0
sg25
F63744.0
sg26
F0.0
sg27
F762135.0
sg28
F0.08363872542266133
sg29
F0.0
ssS'WALTERS GARETH W'
p85
(dp86
g3
F0.0
sg4
F53625.0
sg5
F33785.0
sg6
I00
sg7
F0.0
sg8
I0
sg10
F0.0
sg11
F0.0
sg12
F0.0
sg13
F0.0
sg14
F0.0
sg15
F0.0
sg16
F0.0
sg17
F0.0
sg18
F0.0
sg19
F0.0
sg20
F0.0
sg21
F1030329.0
sg22
F0.0
sg23
F0.0
sg24
F0.0
sg25
F0.0
sg26
F0.0
sg27
F87410.0
sg28
F0.0
sg29
F1030329.0
ssS'WALLS JR ROBERT H'
p87
(dp88
g3
F671.0
sg4
F0.0
sg5
F50936.0
sg6
I00
sg7
F540751.0
sg8
S'rob.walls@enron.com'
p89
sg10
F17.0
sg11
F0.0
sg12
F0.0
sg13
F215.0
sg14
F0.0
sg15
F146.0
sg16
F2.0
sg17
F1.4726027397260273
sg18
F0.0
sg19
F850000.0
sg20
F0.3204172876304024
sg21
F5898997.0
sg22
F0.47254250102847484
sg23
F0.0
sg24
F1552453.0
sg25
F357091.0
sg26
F17.0
sg27
F1798780.0
sg28
F0.1985184402761872
sg29
F4346544.0
ssS'KITCHEN LOUISE'
p90
(dp91
g3
F8305.0
sg4
F0.0
sg5
F5774.0
sg6
I00
sg7
F0.0
sg8
S'louise.kitchen@enron.com'
p92
sg10
F251.0
sg11
F0.0
sg12
F0.0
sg13
F3669.0
sg14
F0.0
sg15
F1728.0
sg16
F93925.0
sg17
F2.123263888888889
sg18
F0.0
sg19
F3100000.0
sg20
F0.441782059000602
sg21
F547143.0
sg22
F0.8930780973748977
sg23
F194.0
sg24
F466101.0
sg25
F271442.0
sg26
F445.0
sg27
F3471141.0
sg28
F0.07819964674439903
sg29
F81042.0
ssS'CHAN RONNIE'
p93
(dp94
g3
F0.0
sg4
F0.0
sg5
F0.0
sg6
I00
sg7
F0.0
sg8
I0
sg10
F0.0
sg11
F-98784.0
sg12
F-32460.0
sg13
F0.0
sg14
F0.0
sg15
F0.0
sg16
F0.0
sg17
F0.0
sg18
F98784.0
sg19
F0.0
sg20
F0.0
sg21
F0.0
sg22
F0.0
sg23
F0.0
sg24
F32460.0
sg25
F0.0
sg26
F0.0
sg27
F0.0
sg28
F0.0
sg29
F0.0
ssS'BELFER ROBERT'
p95
(dp96
g3
F0.0
sg4
F0.0
sg5
F3285.0
sg6
I00
sg7
F0.0
sg8
I0
sg10
F0.0
sg11
F-102500.0
sg12
F-44093.0
sg13
F0.0
sg14
F0.0
sg15
F0.0
sg16
F0.0
sg17
F0.0
sg18
F102500.0
sg19
F0.0
sg20
F0.0
sg21
F0.0
sg22
F0.0
sg23
F0.0
sg24
F44093.0
sg25
F0.0
sg26
F0.0
sg27
F3285.0
sg28
F0.0
sg29
F0.0
ssS'SHANKMAN JEFFREY A'
p97
(dp98
g3
F3221.0
sg4
F0.0
sg5
F178979.0
sg6
I00
sg7
F554422.0
sg8
S'jeffrey.shankman@enron.com'
p99
sg10
F94.0
sg11
F0.0
sg12
F0.0
sg13
F1730.0
sg14
F0.0
sg15
F2681.0
sg16
F1191.0
sg17
F0.6452816113390526
sg18
F0.0
sg19
F2000000.0
sg20
F0.5371002794163303
sg21
F2072035.0
sg22
F0.6581757605714545
sg23
F83.0
sg24
F630137.0
sg25
F304110.0
sg26
F177.0
sg27
F3038702.0
sg28
F0.10007891527369252
sg29
F1441898.0
ssS'WODRASKA JOHN'
p100
(dp101
g3
F0.0
sg4
F0.0
sg5
F0.0
sg6
I00
sg7
F0.0
sg8
S'john.wodraska@enron.com'
p102
sg10
F0.0
sg11
F0.0
sg12
F0.0
sg13
F0.0
sg14
F0.0
sg15
F0.0
sg16
F189583.0
sg17
F0.0
sg18
F0.0
sg19
F0.0
sg20
F0.0
sg21
F0.0
sg22
F0.0
sg23
F0.0
sg24
F0.0
sg25
F0.0
sg26
F0.0
sg27
F189583.0
sg28
F0.0
sg29
F0.0
ssS'BERGSIEKER RICHARD P'
p103
(dp104
g3
F383.0
sg4
F0.0
sg5
F59175.0
sg6
I00
sg7
F180250.0
sg8
S'rick.bergsieker@enron.com'
p105
sg10
F4.0
sg11
F-485813.0
sg12
F0.0
sg13
F233.0
sg14
F0.0
sg15
F59.0
sg16
F427316.0
sg17
F3.9491525423728815
sg18
F0.0
sg19
F250000.0
sg20
F0.608355091383812
sg21
F659249.0
sg22
F0.4039751151329078
sg23
F0.0
sg24
F659249.0
sg25
F187922.0
sg26
F4.0
sg27
F618850.0
sg28
F0.3036632463440252
sg29
F0.0
ssS'URQUHART JOHN A'
p106
(dp107
g3
F0.0
sg4
F0.0
sg5
F228656.0
sg6
I00
sg7
F0.0
sg8
I0
sg10
F0.0
sg11
F-36666.0
sg12
F0.0
sg13
F0.0
sg14
F0.0
sg15
F0.0
sg16
F0.0
sg17
F0.0
sg18
F36666.0
sg19
F0.0
sg20
F0.0
sg21
F0.0
sg22
F0.0
sg23
F0.0
sg24
F0.0
sg25
F0.0
sg26
F0.0
sg27
F228656.0
sg28
F0.0
sg29
F0.0
ssS'BIBI PHILIPPE A'
p108
(dp109
g3
F1607.0
sg4
F0.0
sg5
F38559.0
sg6
I00
sg7
F369721.0
sg8
S'philippe.bibi@enron.com'
p110
sg10
F23.0
sg11
F0.0
sg12
F0.0
sg13
F1336.0
sg14
F0.0
sg15
F40.0
sg16
F425688.0
sg17
F33.4
sg18
F0.0
sg19
F1000000.0
sg20
F0.8313627878033603
sg21
F1843816.0
sg22
F0.4883783056496091
sg23
F8.0
sg24
F378082.0
sg25
F213625.0
sg26
F31.0
sg27
F2047593.0
sg28
F0.10432981554439774
sg29
F1465734.0
ssS'PIRO JIM'
p111
(dp112
g3
F58.0
sg4
F0.0
sg5
F0.0
sg6
I00
sg7
F0.0
sg8
S'jim.piro@enron.com'
p113
sg10
F0.0
sg11
F0.0
sg12
F0.0
sg13
F3.0
sg14
F0.0
sg15
F16.0
sg16
F0.0
sg17
F0.1875
sg18
F0.0
sg19
F0.0
sg20
F0.05172413793103448
sg21
F47304.0
sg22
F0.0
sg23
F1.0
sg24
F47304.0
sg25
F0.0
sg26
F1.0
sg27
F0.0
sg28
F0.0
sg29
F0.0
ssS'RIEKER PAULA H'
p114
(dp115
g3
F1328.0
sg4
F214678.0
sg5
F33271.0
sg6
I01
sg7
F0.0
sg8
S'paula.rieker@enron.com'
p116
sg10
F35.0
sg11
F-100000.0
sg12
F0.0
sg13
F1258.0
sg14
F0.0
sg15
F82.0
sg16
F1950.0
sg17
F15.341463414634147
sg18
F0.0
sg19
F700000.0
sg20
F0.947289156626506
sg21
F1918887.0
sg22
F0.6368847238649804
sg23
F48.0
sg24
F283649.0
sg25
F249201.0
sg26
F83.0
sg27
F1099100.0
sg28
F0.22673187153125285
sg29
F1635238.0
ssS'WHALEY DAVID A'
p117
(dp118
g3
F0.0
sg4
F0.0
sg5
F0.0
sg6
I00
sg7
F0.0
sg8
I0
sg10
F0.0
sg11
F0.0
sg12
F0.0
sg13
F0.0
sg14
F0.0
sg15
F0.0
sg16
F0.0
sg17
F0.0
sg18
F0.0
sg19
F0.0
sg20
F0.0
sg21
F98718.0
sg22
F0.0
sg23
F0.0
sg24
F0.0
sg25
F0.0
sg26
F0.0
sg27
F0.0
sg28
F0.0
sg29
F98718.0
ssS'BECK SALLY W'
p119
(dp120
g3
F7315.0
sg4
F0.0
sg5
F37172.0
sg6
I00
sg7
F0.0
sg8
S'sally.beck@enron.com'
p121
sg10
F144.0
sg11
F0.0
sg12
F0.0
sg13
F2639.0
sg14
F0.0
sg15
F4343.0
sg16
F566.0
sg17
F0.6076444853787705
sg18
F0.0
sg19
F700000.0
sg20
F0.36076555023923446
sg21
F126027.0
sg22
F0.7223435300721931
sg23
F386.0
sg24
F126027.0
sg25
F231330.0
sg26
F530.0
sg27
F969068.0
sg28
F0.23871389830228631
sg29
F0.0
ssS'HAUG DAVID L'
p122
(dp123
g3
F573.0
sg4
F0.0
sg5
F475.0
sg6
I00
sg7
F0.0
sg8
S'david.haug@enron.com'
p124
sg10
F4.0
sg11
F0.0
sg12
F0.0
sg13
F471.0
sg14
F0.0
sg15
F19.0
sg16
F0.0
sg17
F24.789473684210527
sg18
F0.0
sg19
F0.0
sg20
F0.8219895287958116
sg21
F2217299.0
sg22
F0.0
sg23
F7.0
sg24
F2217299.0
sg25
F0.0
sg26
F11.0
sg27
F475.0
sg28
F0.0
sg29
F0.0
ssS'ECHOLS JOHN B'
p125
(dp126
g3
F0.0
sg4
F0.0
sg5
F21530.0
sg6
I00
sg7
F2234774.0
sg8
S'john.echols@enron.com'
p127
sg10
F0.0
sg11
F0.0
sg12
F0.0
sg13
F0.0
sg14
F0.0
sg15
F0.0
sg16
F53775.0
sg17
F0.0
sg18
F0.0
sg19
F200000.0
sg20
F0.0
sg21
F1008941.0
sg22
F0.07428526432925606
sg23
F0.0
sg24
F407503.0
sg25
F182245.0
sg26
F0.0
sg27
F2692324.0
sg28
F0.06769058998842635
sg29
F601438.0
ssS'MENDELSOHN JOHN'
p128
(dp129
g3
F0.0
sg4
F0.0
sg5
F148.0
sg6
I00
sg7
F0.0
sg8
I0
sg10
F0.0
sg11
F-103750.0
sg12
F0.0
sg13
F0.0
sg14
F0.0
sg15
F0.0
sg16
F0.0
sg17
F0.0
sg18
F103750.0
sg19
F0.0
sg20
F0.0
sg21
F0.0
sg22
F0.0
sg23
F0.0
sg24
F0.0
sg25
F0.0
sg26
F0.0
sg27
F148.0
sg28
F0.0
sg29
F0.0
ssS'HICKERSON GARY J'
p130
(dp131
g3
F1320.0
sg4
F0.0
sg5
F98849.0
sg6
I00
sg7
F69223.0
sg8
S'gary.hickerson@enron.com'
p132
sg10
F40.0
sg11
F0.0
sg12
F0.0
sg13
F900.0
sg14
F0.0
sg15
F27.0
sg16
F1936.0
sg17
F33.333333333333336
sg18
F0.0
sg19
F1700000.0
sg20
F0.6818181818181818
sg21
F441096.0
sg22
F0.8166025873812804
sg23
F1.0
sg24
F441096.0
sg25
F211788.0
sg26
F41.0
sg27
F2081796.0
sg28
F0.10173331104488624
sg29
F0.0
ssS'CLINE KENNETH W'
p133
(dp134
g3
F0.0
sg4
F0.0
sg5
F0.0
sg6
I00
sg7
F0.0
sg8
I0
sg10
F0.0
sg11
F0.0
sg12
F-472568.0
sg13
F0.0
sg14
F0.0
sg15
F0.0
sg16
F0.0
sg17
F0.0
sg18
F0.0
sg19
F0.0
sg20
F0.0
sg21
F189518.0
sg22
F0.0
sg23
F0.0
sg24
F662086.0
sg25
F0.0
sg26
F0.0
sg27
F0.0
sg28
F0.0
sg29
F0.0
ssS'LEWIS RICHARD'
p135
(dp136
g3
F952.0
sg4
F0.0
sg5
F0.0
sg6
I00
sg7
F0.0
sg8
S'richard.lewis@enron.com'
p137
sg10
F10.0
sg11
F0.0
sg12
F0.0
sg13
F739.0
sg14
F0.0
sg15
F26.0
sg16
F0.0
sg17
F28.423076923076923
sg18
F0.0
sg19
F0.0
sg20
F0.7762605042016807
sg21
F850477.0
sg22
F0.0
sg23
F0.0
sg24
F0.0
sg25
F0.0
sg26
F10.0
sg27
F0.0
sg28
F0.0
sg29
F850477.0
ssS'HAYES ROBERT E'
p138
(dp139
g3
F504.0
sg4
F7961.0
sg5
F0.0
sg6
I00
sg7
F0.0
sg8
S'robert.hayes@enron.com'
p140
sg10
F16.0
sg11
F0.0
sg12
F0.0
sg13
F50.0
sg14
F0.0
sg15
F12.0
sg16
F0.0
sg17
F4.166666666666667
sg18
F0.0
sg19
F0.0
sg20
F0.0992063492063492
sg21
F151418.0
sg22
F0.0
sg23
F0.0
sg24
F151418.0
sg25
F0.0
sg26
F16.0
sg27
F7961.0
sg28
F0.0
sg29
F0.0
ssS'KOPPER MICHAEL J'
p141
(dp142
g3
F0.0
sg4
F0.0
sg5
F118134.0
sg6
I01
sg7
F602671.0
sg8
S'michael.kopper@enron.com'
p143
sg10
F0.0
sg11
F0.0
sg12
F0.0
sg13
F0.0
sg14
F0.0
sg15
F0.0
sg16
F907502.0
sg17
F0.0
sg18
F0.0
sg19
F800000.0
sg20
F0.0
sg21
F985032.0
sg22
F0.30158952760524343
sg23
F0.0
sg24
F985032.0
sg25
F224305.0
sg26
F0.0
sg27
F2652612.0
sg28
F0.08456004873686766
sg29
F0.0
ssS'LEFF DANIEL P'
p144
(dp145
g3
F2822.0
sg4
F0.0
sg5
F0.0
sg6
I00
sg7
F1387399.0
sg8
S'dan.leff@enron.com'
p146
sg10
F67.0
sg11
F0.0
sg12
F0.0
sg13
F2672.0
sg14
F0.0
sg15
F63.0
sg16
F3083.0
sg17
F42.41269841269841
sg18
F0.0
sg19
F1000000.0
sg20
F0.9468462083628633
sg21
F360528.0
sg22
F0.3753432514034084
sg23
F14.0
sg24
F360528.0
sg25
F273746.0
sg26
F81.0
sg27
F2664228.0
sg28
F0.10274871369867744
sg29
F0.0
ssS'LAVORATO JOHN J'
p147
(dp148
g3
F7259.0
sg4
F0.0
sg5
F49537.0
sg6
I00
sg7
F2035380.0
sg8
S'john.lavorato@enron.com'
p149
sg10
F528.0
sg11
F0.0
sg12
F0.0
sg13
F3962.0
sg14
F0.0
sg15
F2585.0
sg16
F1552.0
sg17
F1.532688588007737
sg18
F0.0
sg19
F8000000.0
sg20
F0.5458052073288332
sg21
F5167144.0
sg22
F0.767330372269371
sg23
F411.0
sg24
F1008149.0
sg25
F339288.0
sg26
F939.0
sg27
F10425757.0
sg28
F0.03254324841831629
sg29
F4158995.0
ssS'BERBERIAN DAVID'
p150
(dp151
g3
F0.0
sg4
F0.0
sg5
F11892.0
sg6
I00
sg7
F0.0
sg8
S'david.berberian@enron.com'
p152
sg10
F0.0
sg11
F0.0
sg12
F0.0
sg13
F0.0
sg14
F0.0
sg15
F0.0
sg16
F0.0
sg17
F0.0
sg18
F0.0
sg19
F0.0
sg20
F0.0
sg21
F2493616.0
sg22
F0.0
sg23
F0.0
sg24
F869220.0
sg25
F216582.0
sg26
F0.0
sg27
F228474.0
sg28
F0.9479503138212663
sg29
F1624396.0
ssS'DETMERING TIMOTHY J'
p153
(dp154
g3
F0.0
sg4
F875307.0
sg5
F52255.0
sg6
I00
sg7
F415657.0
sg8
S'timothy.detmering@enron.com'
p155
sg10
F0.0
sg11
F-775241.0
sg12
F-315068.0
sg13
F0.0
sg14
F0.0
sg15
F0.0
sg16
F1105.0
sg17
F0.0
sg18
F0.0
sg19
F425000.0
sg20
F0.0
sg21
F2027865.0
sg22
F0.3528191913716199
sg23
F0.0
sg24
F315068.0
sg25
F210500.0
sg26
F0.0
sg27
F1204583.0
sg28
F0.17474927007935526
sg29
F2027865.0
ssS'WAKEHAM JOHN'
p156
(dp157
g3
F0.0
sg4
F0.0
sg5
F103773.0
sg6
I00
sg7
F0.0
sg8
I0
sg10
F0.0
sg11
F0.0
sg12
F0.0
sg13
F0.0
sg14
F0.0
sg15
F0.0
sg16
F0.0
sg17
F0.0
sg18
F109298.0
sg19
F0.0
sg20
F0.0
sg21
F0.0
sg22
F0.0
sg23
F0.0
sg24
F0.0
sg25
F0.0
sg26
F0.0
sg27
F213071.0
sg28
F0.0
sg29
F0.0
ssS'POWERS WILLIAM'
p158
(dp159
g3
F653.0
sg4
F0.0
sg5
F0.0
sg6
I00
sg7
F0.0
sg8
S'ken.powers@enron.com'
p160
sg10
F0.0
sg11
F-17500.0
sg12
F0.0
sg13
F12.0
sg14
F0.0
sg15
F26.0
sg16
F0.0
sg17
F0.46153846153846156
sg18
F17500.0
sg19
F0.0
sg20
F0.018376722817764167
sg21
F0.0
sg22
F0.0
sg23
F0.0
sg24
F0.0
sg25
F0.0
sg26
F0.0
sg27
F0.0
sg28
F0.0
sg29
F0.0
ssS'GOLD JOSEPH'
p161
(dp162
g3
F0.0
sg4
F0.0
sg5
F0.0
sg6
I00
sg7
F304805.0
sg8
S'joe.gold@enron.com'
p163
sg10
F0.0
sg11
F0.0
sg12
F0.0
sg13
F0.0
sg14
F0.0
sg15
F0.0
sg16
F819288.0
sg17
F0.0
sg18
F0.0
sg19
F750000.0
sg20
F0.0
sg21
F877611.0
sg22
F0.34932903208377564
sg23
F0.0
sg24
F441096.0
sg25
F272880.0
sg26
F0.0
sg27
F2146973.0
sg28
F0.12709987503336093
sg29
F436515.0
ssS'BANNANTINE JAMES M'
p164
(dp165
g3
F566.0
sg4
F0.0
sg5
F56301.0
sg6
I00
sg7
F0.0
sg8
S'james.bannantine@enron.com'
p166
sg10
F39.0
sg11
F-5104.0
sg12
F-560222.0
sg13
F465.0
sg14
F0.0
sg15
F29.0
sg16
F864523.0
sg17
F16.03448275862069
sg18
F0.0
sg19
F0.0
sg20
F0.8215547703180212
sg21
F5243487.0
sg22
F0.0
sg23
F0.0
sg24
F1757552.0
sg25
F477.0
sg26
F39.0
sg27
F916197.0
sg28
F0.0005206303884426602
sg29
F4046157.0
ssS'DUNCAN JOHN H'
p167
(dp168
g3
F0.0
sg4
F0.0
sg5
F0.0
sg6
I00
sg7
F0.0
sg8
I0
sg10
F0.0
sg11
F-25000.0
sg12
F0.0
sg13
F0.0
sg14
F0.0
sg15
F0.0
sg16
F0.0
sg17
F0.0
sg18
F102492.0
sg19
F0.0
sg20
F0.0
sg21
F371750.0
sg22
F0.0
sg23
F0.0
sg24
F0.0
sg25
F0.0
sg26
F0.0
sg27
F77492.0
sg28
F0.0
sg29
F371750.0
ssS'SHAPIRO RICHARD S'
p169
(dp170
g3
F15149.0
sg4
F0.0
sg5
F137767.0
sg6
I00
sg7
F0.0
sg8
S'richard.shapiro@enron.com'
p171
sg10
F74.0
sg11
F0.0
sg12
F0.0
sg13
F4527.0
sg14
F0.0
sg15
F1215.0
sg16
F705.0
sg17
F3.725925925925926
sg18
F0.0
sg19
F650000.0
sg20
F0.29883160604660375
sg21
F987001.0
sg22
F0.6146293123338137
sg23
F65.0
sg24
F379164.0
sg25
F269076.0
sg26
F139.0
sg27
F1057548.0
sg28
F0.25443384130082036
sg29
F607837.0
ssS'SHERRIFF JOHN R'
p172
(dp173
g3
F3187.0
sg4
F0.0
sg5
F0.0
sg6
I00
sg7
F554422.0
sg8
S'john.sherriff@enron.com'
p174
sg10
F28.0
sg11
F0.0
sg12
F0.0
sg13
F2103.0
sg14
F0.0
sg15
F92.0
sg16
F1852186.0
sg17
F22.858695652173914
sg18
F0.0
sg19
F1500000.0
sg20
F0.6598682146219015
sg21
F3128982.0
sg22
F0.34598979376240374
sg23
F23.0
sg24
F1293424.0
sg25
F428780.0
sg26
F51.0
sg27
F4335388.0
sg28
F0.09890233584629565
sg29
F1835558.0
ssS'SHELBY REX'
p175
(dp176
g3
F225.0
sg4
F0.0
sg5
F22884.0
sg6
I01
sg7
F0.0
sg8
S'rex.shelby@enron.com'
p177
sg10
F13.0
sg11
F-4167.0
sg12
F0.0
sg13
F91.0
sg14
F0.0
sg15
F39.0
sg16
F1573324.0
sg17
F2.3333333333333335
sg18
F0.0
sg19
F200000.0
sg20
F0.40444444444444444
sg21
F2493616.0
sg22
F0.09980612659908128
sg23
F14.0
sg24
F869220.0
sg25
F211844.0
sg26
F27.0
sg27
F2003885.0
sg28
F0.10571664541627888
sg29
F1624396.0
ssS'LEMAISTRE CHARLES'
p178
(dp179
g3
F0.0
sg4
F0.0
sg5
F0.0
sg6
I00
sg7
F0.0
sg8
I0
sg10
F0.0
sg11
F-25000.0
sg12
F0.0
sg13
F0.0
sg14
F0.0
sg15
F0.0
sg16
F0.0
sg17
F0.0
sg18
F112492.0
sg19
F0.0
sg20
F0.0
sg21
F412878.0
sg22
F0.0
sg23
F0.0
sg24
F0.0
sg25
F0.0
sg26
F0.0
sg27
F87492.0
sg28
F0.0
sg29
F412878.0
ssS'DEFFNER JOSEPH M'
p180
(dp181
g3
F714.0
sg4
F0.0
sg5
F41626.0
sg6
I00
sg7
F335349.0
sg8
S'joseph.deffner@enron.com'
p182
sg10
F115.0
sg11
F0.0
sg12
F0.0
sg13
F552.0
sg14
F0.0
sg15
F74.0
sg16
F25553.0
sg17
F7.45945945945946
sg18
F0.0
sg19
F600000.0
sg20
F0.773109243697479
sg21
F159211.0
sg22
F0.49642203815996205
sg23
F4.0
sg24
F141833.0
sg25
F206121.0
sg26
F119.0
sg27
F1208649.0
sg28
F0.17053834487928257
sg29
F17378.0
ssS'KISHKILL JOSEPH G'
p183
(dp184
g3
F0.0
sg4
F0.0
sg5
F116335.0
sg6
I00
sg7
F0.0
sg8
S'joe.kishkill@enron.com'
p185
sg10
F0.0
sg11
F-51042.0
sg12
F0.0
sg13
F0.0
sg14
F0.0
sg15
F0.0
sg16
F465357.0
sg17
F0.0
sg18
F0.0
sg19
F0.0
sg20
F0.0
sg21
F1034346.0
sg22
F0.0
sg23
F0.0
sg24
F1034346.0
sg25
F174246.0
sg26
F0.0
sg27
F704896.0
sg28
F0.2471939122934447
sg29
F0.0
ssS'WHALLEY LAWRENCE G'
p186
(dp187
g3
F6019.0
sg4
F0.0
sg5
F57838.0
sg6
I00
sg7
F808346.0
sg8
S'greg.whalley@enron.com'
p188
sg10
F186.0
sg11
F0.0
sg12
F0.0
sg13
F3920.0
sg14
F0.0
sg15
F556.0
sg16
F301026.0
sg17
F7.0503597122302155
sg18
F0.0
sg19
F3000000.0
sg20
F0.6512709752450573
sg21
F6079137.0
sg22
F0.6413581057189047
sg23
F24.0
sg24
F2796177.0
sg25
F510364.0
sg26
F210.0
sg27
F4677574.0
sg28
F0.10910869608904103
sg29
F3282960.0
ssS'MCCARTY DANNY J'
p189
(dp190
g3
F1433.0
sg4
F0.0
sg5
F0.0
sg6
I00
sg7
F0.0
sg8
S'danny.mccarty@enron.com'
p191
sg10
F25.0
sg11
F0.0
sg12
F0.0
sg13
F508.0
sg14
F0.0
sg15
F215.0
sg16
F0.0
sg17
F2.3627906976744186
sg18
F0.0
sg19
F0.0
sg20
F0.35450104675505933
sg21
F758931.0
sg22
F0.0
sg23
F2.0
sg24
F94556.0
sg25
F0.0
sg26
F27.0
sg27
F0.0
sg28
F0.0
sg29
F664375.0
ssS'MCCONNELL MICHAEL S'
p192
(dp193
g3
F3329.0
sg4
F0.0
sg5
F81364.0
sg6
I00
sg7
F554422.0
sg8
S'mike.mcconnell@enron.com'
p194
sg10
F92.0
sg11
F0.0
sg12
F0.0
sg13
F2189.0
sg14
F0.0
sg15
F2742.0
sg16
F540.0
sg17
F0.7983223924142961
sg18
F0.0
sg19
F1100000.0
sg20
F0.657554821267648
sg21
F3101279.0
sg22
F0.5234695178940917
sg23
F194.0
sg24
F1478269.0
sg25
F365038.0
sg26
F286.0
sg27
F2101364.0
sg28
F0.17371478715729402
sg29
F1623010.0
ssS'DELAINEY DAVID W'
p195
(dp196
g3
F3093.0
sg4
F0.0
sg5
F86174.0
sg6
I01
sg7
F1294981.0
sg8
S'david.delainey@enron.com'
p197
sg10
F66.0
sg11
F0.0
sg12
F0.0
sg13
F2097.0
sg14
F0.0
sg15
F3069.0
sg16
F1661.0
sg17
F0.6832844574780058
sg18
F0.0
sg19
F3000000.0
sg20
F0.6779825412221144
sg21
F3614261.0
sg22
F0.6318477819720769
sg23
F609.0
sg24
F1323148.0
sg25
F365163.0
sg26
F675.0
sg27
F4747979.0
sg28
F0.07690914386942319
sg29
F2291113.0
ssS'SULLIVAN-SHAKLOVITZ COLLEEN'
p198
(dp199
g3
F0.0
sg4
F181993.0
sg5
F0.0
sg6
I00
sg7
F554422.0
sg8
I0
sg10
F0.0
sg11
F0.0
sg12
F0.0
sg13
F0.0
sg14
F0.0
sg15
F0.0
sg16
F162.0
sg17
F0.0
sg18
F0.0
sg19
F100000.0
sg20
F0.0
sg21
F1362375.0
sg22
F0.10006444150032621
sg23
F0.0
sg24
F0.0
sg25
F162779.0
sg26
F0.0
sg27
F999356.0
sg28
F0.162883897229816
sg29
F1362375.0
ssS'WROBEL BRUCE'
p200
(dp201
g3
F0.0
sg4
F0.0
sg5
F0.0
sg6
I00
sg7
F0.0
sg8
I0
sg10
F0.0
sg11
F0.0
sg12
F0.0
sg13
F0.0
sg14
F0.0
sg15
F0.0
sg16
F0.0
sg17
F0.0
sg18
F0.0
sg19
F0.0
sg20
F0.0
sg21
F139130.0
sg22
F0.0
sg23
F0.0
sg24
F0.0
sg25
F0.0
sg26
F0.0
sg27
F0.0
sg28
F0.0
sg29
F139130.0
ssS'LINDHOLM TOD A'
p202
(dp203
g3
F0.0
sg4
F204075.0
sg5
F57727.0
sg6
I00
sg7
F175000.0
sg8
S'tod.lindholm@enron.com'
p204
sg10
F0.0
sg11
F0.0
sg12
F0.0
sg13
F0.0
sg14
F0.0
sg15
F0.0
sg16
F2630.0
sg17
F0.0
sg18
F0.0
sg19
F200000.0
sg20
F0.0
sg21
F3064208.0
sg22
F0.22833943570475254
sg23
F0.0
sg24
F514847.0
sg25
F236457.0
sg26
F0.0
sg27
F875889.0
sg28
F0.2699622897421934
sg29
F2549361.0
ssS'MEYER JEROME J'
p205
(dp206
g3
F0.0
sg4
F0.0
sg5
F2151.0
sg6
I00
sg7
F0.0
sg8
I0
sg10
F0.0
sg11
F-38346.0
sg12
F0.0
sg13
F0.0
sg14
F0.0
sg15
F0.0
sg16
F0.0
sg17
F0.0
sg18
F38346.0
sg19
F0.0
sg20
F0.0
sg21
F0.0
sg22
F0.0
sg23
F0.0
sg24
F0.0
sg25
F0.0
sg26
F0.0
sg27
F2151.0
sg28
F0.0
sg29
F0.0
ssS'LAY KENNETH L'
p207
(dp208
g3
F4273.0
sg4
F202911.0
sg5
F99832.0
sg6
I01
sg7
F3600000.0
sg8
S'kenneth.lay@enron.com'
p209
sg10
F123.0
sg11
F-300000.0
sg12
F0.0
sg13
F2411.0
sg14
F81525000.0
sg15
F36.0
sg16
F10359729.0
sg17
F66.97222222222223
sg18
F0.0
sg19
F7000000.0
sg20
F0.5642405803884858
sg21
F49110078.0
sg22
F0.06759380061719514
sg23
F16.0
sg24
F14761694.0
sg25
F1072321.0
sg26
F139.0
sg27
F103559793.0
sg28
F0.010354607410233042
sg29
F34348384.0
ssS'BUTTS ROBERT H'
p210
(dp211
g3
F0.0
sg4
F0.0
sg5
F9410.0
sg6
I00
sg7
F175000.0
sg8
S'bob.butts@enron.com'
p212
sg10
F0.0
sg11
F-75000.0
sg12
F0.0
sg13
F0.0
sg14
F0.0
sg15
F0.0
sg16
F150656.0
sg17
F0.0
sg18
F0.0
sg19
F750000.0
sg20
F0.0
sg21
F417619.0
sg22
F0.5898164648445794
sg23
F0.0
sg24
F417619.0
sg25
F261516.0
sg26
F0.0
sg27
F1271582.0
sg28
F0.20566192349372672
sg29
F0.0
ssS'OLSON CINDY K'
p213
(dp214
g3
F1184.0
sg4
F77716.0
sg5
F63791.0
sg6
I00
sg7
F100000.0
sg8
S'cindy.olson@enron.com'
p215
sg10
F20.0
sg11
F0.0
sg12
F0.0
sg13
F856.0
sg14
F0.0
sg15
F52.0
sg16
F972.0
sg17
F16.46153846153846
sg18
F0.0
sg19
F750000.0
sg20
F0.722972972972973
sg21
F2606763.0
sg22
F0.5675124114964394
sg23
F15.0
sg24
F969729.0
sg25
F329078.0
sg26
F35.0
sg27
F1321557.0
sg28
F0.2490077991339004
sg29
F1637034.0
ssS'MCDONALD REBECCA'
p216
(dp217
g3
F894.0
sg4
F0.0
sg5
F0.0
sg6
I00
sg7
F0.0
sg8
S'rebecca.mcdonald@enron.com'
p218
sg10
F54.0
sg11
F0.0
sg12
F0.0
sg13
F720.0
sg14
F0.0
sg15
F13.0
sg16
F0.0
sg17
F55.38461538461539
sg18
F0.0
sg19
F0.0
sg20
F0.8053691275167785
sg21
F1691366.0
sg22
F0.0
sg23
F1.0
sg24
F934065.0
sg25
F0.0
sg26
F55.0
sg27
F0.0
sg28
F0.0
sg29
F757301.0
ssS'CUMBERLAND MICHAEL S'
p219
(dp220
g3
F0.0
sg4
F0.0
sg5
F22344.0
sg6
I00
sg7
F275000.0
sg8
I0
sg10
F0.0
sg11
F0.0
sg12
F0.0
sg13
F0.0
sg14
F0.0
sg15
F0.0
sg16
F713.0
sg17
F0.0
sg18
F0.0
sg19
F325000.0
sg20
F0.0
sg21
F207940.0
sg22
F0.4022496274549604
sg23
F0.0
sg24
F207940.0
sg25
F184899.0
sg26
F0.0
sg27
F807956.0
sg28
F0.2288478580516761
sg29
F0.0
ssS'GAHN ROBERT S'
p221
(dp222
g3
F0.0
sg4
F73122.0
sg5
F50080.0
sg6
I00
sg7
F0.0
sg8
I0
sg10
F0.0
sg11
F-1042.0
sg12
F0.0
sg13
F0.0
sg14
F0.0
sg15
F0.0
sg16
F76547.0
sg17
F0.0
sg18
F0.0
sg19
F509870.0
sg20
F0.0
sg21
F318607.0
sg22
F0.5661542219779365
sg23
F0.0
sg24
F235370.0
sg25
F192008.0
sg26
F0.0
sg27
F900585.0
sg28
F0.21320363985631563
sg29
F83237.0
ssS'MCCLELLAN GEORGE'
p223
(dp224
g3
F1744.0
sg4
F0.0
sg5
F228763.0
sg6
I00
sg7
F0.0
sg8
S'george.mcclellan@enron.com'
p225
sg10
F52.0
sg11
F-125000.0
sg12
F0.0
sg13
F1469.0
sg14
F0.0
sg15
F49.0
sg16
F51587.0
sg17
F29.979591836734695
sg18
F0.0
sg19
F900000.0
sg20
F0.8423165137614679
sg21
F947861.0
sg22
F0.6824577274309334
sg23
F0.0
sg24
F441096.0
sg25
F263413.0
sg26
F52.0
sg27
F1318763.0
sg28
F0.1997424859508494
sg29
F506765.0
ssS'HERMANN ROBERT J'
p226
(dp227
g3
F0.0
sg4
F0.0
sg5
F48357.0
sg6
I00
sg7
F150000.0
sg8
S'robert.hermann@enron.com'
p228
sg10
F0.0
sg11
F-280000.0
sg12
F0.0
sg13
F0.0
sg14
F0.0
sg15
F0.0
sg16
F416441.0
sg17
F0.0
sg18
F0.0
sg19
F700000.0
sg20
F0.0
sg21
F668132.0
sg22
F0.5395152532523135
sg23
F0.0
sg24
F480632.0
sg25
F262663.0
sg26
F0.0
sg27
F1297461.0
sg28
F0.20244384995001777
sg29
F187500.0
ssS'SCRIMSHAW MATTHEW'
p229
(dp230
g3
F0.0
sg4
F0.0
sg5
F0.0
sg6
I00
sg7
F0.0
sg8
S'matthew.scrimshaw@enron.com'
p231
sg10
F0.0
sg11
F0.0
sg12
F0.0
sg13
F0.0
sg14
F0.0
sg15
F0.0
sg16
F0.0
sg17
F0.0
sg18
F0.0
sg19
F0.0
sg20
F0.0
sg21
F759557.0
sg22
F0.0
sg23
F0.0
sg24
F0.0
sg25
F0.0
sg26
F0.0
sg27
F0.0
sg28
F0.0
sg29
F759557.0
ssS'GATHMANN WILLIAM D'
p232
(dp233
g3
F0.0
sg4
F0.0
sg5
F0.0
sg6
I00
sg7
F0.0
sg8
I0
sg10
F0.0
sg11
F0.0
sg12
F-72419.0
sg13
F0.0
sg14
F0.0
sg15
F0.0
sg16
F0.0
sg17
F0.0
sg18
F0.0
sg19
F0.0
sg20
F0.0
sg21
F1945360.0
sg22
F0.0
sg23
F0.0
sg24
F264013.0
sg25
F0.0
sg26
F0.0
sg27
F0.0
sg28
F0.0
sg29
F1753766.0
ssS'HAEDICKE MARK E'
p234
(dp235
g3
F4009.0
sg4
F2157527.0
sg5
F76169.0
sg6
I00
sg7
F983346.0
sg8
S'mark.haedicke@enron.com'
p236
sg10
F180.0
sg11
F-934484.0
sg12
F-329825.0
sg13
F1847.0
sg14
F0.0
sg15
F1941.0
sg16
F52382.0
sg17
F0.9515713549716641
sg18
F0.0
sg19
F1150000.0
sg20
F0.4607133948615615
sg21
F803094.0
sg22
F0.29799964499172726
sg23
F61.0
sg24
F524169.0
sg25
F374125.0
sg26
F241.0
sg27
F3859065.0
sg28
F0.09694705841959127
sg29
F608750.0
ssS'BOWEN JR RAYMOND M'
p237
(dp238
g3
F1858.0
sg4
F0.0
sg5
F65907.0
sg6
I01
sg7
F974293.0
sg8
S'raymond.bowen@enron.com'
p239
sg10
F140.0
sg11
F-833.0
sg12
F0.0
sg13
F1593.0
sg14
F0.0
sg15
F27.0
sg16
F1621.0
sg17
F59.0
sg18
F0.0
sg19
F1350000.0
sg20
F0.8573735199138859
sg21
F252055.0
sg22
F0.5056958205926081
sg23
F15.0
sg24
F252055.0
sg25
F278601.0
sg26
F155.0
sg27
F2669589.0
sg28
F0.10436100837994162
sg29
F0.0
ssS'GILLIS JOHN'
p240
(dp241
g3
F0.0
sg4
F0.0
sg5
F0.0
sg6
I00
sg7
F0.0
sg8
I0
sg10
F0.0
sg11
F0.0
sg12
F0.0
sg13
F0.0
sg14
F0.0
sg15
F0.0
sg16
F0.0
sg17
F0.0
sg18
F0.0
sg19
F0.0
sg20
F0.0
sg21
F85641.0
sg22
F0.0
sg23
F0.0
sg24
F75838.0
sg25
F0.0
sg26
F0.0
sg27
F0.0
sg28
F0.0
sg29
F9803.0
ssS'FITZGERALD JAY L'
p242
(dp243
g3
F936.0
sg4
F0.0
sg5
F23870.0
sg6
I00
sg7
F556416.0
sg8
S'jay.fitzgerald@enron.com'
p244
sg10
F1.0
sg11
F0.0
sg12
F0.0
sg13
F723.0
sg14
F0.0
sg15
F16.0
sg16
F285414.0
sg17
F45.1875
sg18
F0.0
sg19
F350000.0
sg20
F0.7724358974358975
sg21
F1621236.0
sg22
F0.24737482303865338
sg23
F8.0
sg24
F956775.0
sg25
F199157.0
sg26
F9.0
sg27
F1414857.0
sg28
F0.14076122180545456
sg29
F664461.0
ssS'MORAN MICHAEL P'
p245
(dp246
g3
F672.0
sg4
F0.0
sg5
F0.0
sg6
I00
sg7
F0.0
sg8
S'michael.moran@enron.com'
p247
sg10
F0.0
sg11
F0.0
sg12
F0.0
sg13
F127.0
sg14
F0.0
sg15
F19.0
sg16
F0.0
sg17
F6.684210526315789
sg18
F0.0
sg19
F0.0
sg20
F0.18898809523809523
sg21
F221141.0
sg22
F0.0
sg23
F0.0
sg24
F161602.0
sg25
F0.0
sg26
F0.0
sg27
F0.0
sg28
F0.0
sg29
F59539.0
ssS'REDMOND BRIAN L'
p248
(dp249
g3
F1671.0
sg4
F0.0
sg5
F14689.0
sg6
I00
sg7
F0.0
sg8
S'brian.redmond@enron.com'
p250
sg10
F204.0
sg11
F0.0
sg12
F0.0
sg13
F1063.0
sg14
F0.0
sg15
F221.0
sg16
F0.0
sg17
F4.8099547511312215
sg18
F0.0
sg19
F0.0
sg20
F0.6361460203470976
sg21
F7890324.0
sg22
F0.0
sg23
F49.0
sg24
F381285.0
sg25
F96840.0
sg26
F253.0
sg27
F111529.0
sg28
F0.8682943449685732
sg29
F7509039.0
ssS'BAZELIDES PHILIP J'
p251
(dp252
g3
F0.0
sg4
F684694.0
sg5
F0.0
sg6
I00
sg7
F93750.0
sg8
I0
sg10
F0.0
sg11
F0.0
sg12
F0.0
sg13
F0.0
sg14
F0.0
sg15
F0.0
sg16
F874.0
sg17
F0.0
sg18
F0.0
sg19
F0.0
sg20
F0.0
sg21
F1599641.0
sg22
F0.0
sg23
F0.0
sg24
F0.0
sg25
F80818.0
sg26
F0.0
sg27
F860136.0
sg28
F0.0939595598835533
sg29
F1599641.0
ssS'BELDEN TIMOTHY N'
p253
(dp254
g3
F7991.0
sg4
F2144013.0
sg5
F17355.0
sg6
I01
sg7
F0.0
sg8
S'tim.belden@enron.com'
p255
sg10
F228.0
sg11
F-2334434.0
sg12
F0.0
sg13
F5521.0
sg14
F0.0
sg15
F484.0
sg16
F210698.0
sg17
F11.40702479338843
sg18
F0.0
sg19
F5249999.0
sg20
F0.6909022650481792
sg21
F1110705.0
sg22
F0.9542624640333864
sg23
F108.0
sg24
F157569.0
sg25
F213999.0
sg26
F336.0
sg27
F5501630.0
sg28
F0.03889738132153562
sg29
F953136.0
ssS'DURAN WILLIAM D'
p256
(dp257
g3
F904.0
sg4
F0.0
sg5
F25785.0
sg6
I00
sg7
F1105218.0
sg8
S'w.duran@enron.com'
p258
sg10
F106.0
sg11
F0.0
sg12
F0.0
sg13
F599.0
sg14
F0.0
sg15
F12.0
sg16
F1568.0
sg17
F49.916666666666664
sg18
F0.0
sg19
F750000.0
sg20
F0.6626106194690266
sg21
F1640910.0
sg22
F0.3582922929416896
sg23
F3.0
sg24
F189041.0
sg25
F210692.0
sg26
F109.0
sg27
F2093263.0
sg28
F0.10065242637929396
sg29
F1451869.0
ssS'THORN TERENCE H'
p259
(dp260
g3
F266.0
sg4
F16586.0
sg5
F46145.0
sg6
I00
sg7
F200000.0
sg8
S'terence.thorn@enron.com'
p261
sg10
F0.0
sg11
F0.0
sg12
F0.0
sg13
F73.0
sg14
F0.0
sg15
F41.0
sg16
F426629.0
sg17
F1.7804878048780488
sg18
F0.0
sg19
F0.0
sg20
F0.2744360902255639
sg21
F4817796.0
sg22
F0.0
sg23
F0.0
sg24
F365320.0
sg25
F222093.0
sg26
F0.0
sg27
F911453.0
sg28
F0.24366917438419755
sg29
F4452476.0
ssS'FASTOW ANDREW S'
p262
(dp263
g3
F0.0
sg4
F0.0
sg5
F55921.0
sg6
I01
sg7
F1736055.0
sg8
S'andrew.fastow@enron.com'
p264
sg10
F0.0
sg11
F-1386055.0
sg12
F0.0
sg13
F0.0
sg14
F0.0
sg15
F0.0
sg16
F277464.0
sg17
F0.0
sg18
F0.0
sg19
F1300000.0
sg20
F0.0
sg21
F1794412.0
sg22
F0.5362852674599013
sg23
F0.0
sg24
F1794412.0
sg25
F440698.0
sg26
F0.0
sg27
F2424083.0
sg28
F0.1817998806146489
sg29
F0.0
ssS'FOY JOE'
p265
(dp266
g3
F57.0
sg4
F181755.0
sg5
F0.0
sg6
I00
sg7
F0.0
sg8
S'tracy.foy@enron.com'
p267
sg10
F0.0
sg11
F0.0
sg12
F0.0
sg13
F2.0
sg14
F0.0
sg15
F13.0
sg16
F0.0
sg17
F0.15384615384615385
sg18
F0.0
sg19
F0.0
sg20
F0.03508771929824561
sg21
F343434.0
sg22
F0.0
sg23
F0.0
sg24
F0.0
sg25
F0.0
sg26
F0.0
sg27
F181755.0
sg28
F0.0
sg29
F343434.0
ssS'CALGER CHRISTOPHER F'
p268
(dp269
g3
F2598.0
sg4
F0.0
sg5
F35818.0
sg6
I01
sg7
F375304.0
sg8
S'christopher.calger@enron.com'
p270
sg10
F199.0
sg11
F-262500.0
sg12
F0.0
sg13
F2188.0
sg14
F0.0
sg15
F144.0
sg16
F486.0
sg17
F15.194444444444445
sg18
F0.0
sg19
F1250000.0
sg20
F0.8421862971516552
sg21
F126027.0
sg22
F0.7625219835087845
sg23
F25.0
sg24
F126027.0
sg25
F240189.0
sg26
F224.0
sg27
F1639297.0
sg28
F0.14651951415759315
sg29
F0.0
ssS'RICE KENNETH D'
p271
(dp272
g3
F905.0
sg4
F0.0
sg5
F46950.0
sg6
I01
sg7
F1617011.0
sg8
S'ken.rice@enron.com'
p273
sg10
F42.0
sg11
F-3504386.0
sg12
F0.0
sg13
F864.0
sg14
F0.0
sg15
F18.0
sg16
F174839.0
sg17
F48.0
sg18
F0.0
sg19
F1750000.0
sg20
F0.9546961325966851
sg21
F22542539.0
sg22
F3.465003465003465
sg23
F4.0
sg24
F2748364.0
sg25
F420636.0
sg26
F46.0
sg27
F505050.0
sg28
F0.8328601128601129
sg29
F19794175.0
ssS'KAMINSKI WINCENTY J'
p274
(dp275
g3
F4607.0
sg4
F0.0
sg5
F83585.0
sg6
I00
sg7
F323466.0
sg8
S'vince.kaminski@enron.com'
p276
sg10
F41.0
sg11
F0.0
sg12
F0.0
sg13
F583.0
sg14
F0.0
sg15
F14368.0
sg16
F4669.0
sg17
F0.04057628062360802
sg18
F0.0
sg19
F400000.0
sg20
F0.1265465595832429
sg21
F976037.0
sg22
F0.368045887961311
sg23
F171.0
sg24
F126027.0
sg25
F275101.0
sg26
F212.0
sg27
F1086821.0
sg28
F0.2531244795601116
sg29
F850010.0
ssS'COX DAVID'
p277
(dp278
g3
F102.0
sg4
F0.0
sg5
F27861.0
sg6
I00
sg7
F0.0
sg8
S'chip.cox@enron.com'
p279
sg10
F0.0
sg11
F-41250.0
sg12
F0.0
sg13
F71.0
sg14
F0.0
sg15
F33.0
sg16
F494.0
sg17
F2.1515151515151514
sg18
F0.0
sg19
F800000.0
sg20
F0.696078431372549
sg21
F495633.0
sg22
F0.7263529003725282
sg23
F4.0
sg24
F378082.0
sg25
F314288.0
sg26
F4.0
sg27
F1101393.0
sg28
F0.28535500044035145
sg29
F117551.0
ssS'OVERDYKE JR JERE C'
p280
(dp281
g3
F0.0
sg4
F0.0
sg5
F18834.0
sg6
I00
sg7
F135836.0
sg8
S'jere.overdyke@enron.com'
p282
sg10
F0.0
sg11
F0.0
sg12
F0.0
sg13
F0.0
sg14
F0.0
sg15
F0.0
sg16
F176.0
sg17
F0.0
sg18
F0.0
sg19
F0.0
sg20
F0.0
sg21
F7307594.0
sg22
F0.0
sg23
F0.0
sg24
F2041016.0
sg25
F94941.0
sg26
F0.0
sg27
F249787.0
sg28
F0.38008783483527964
sg29
F5266578.0
ssS'PEREIRA PAULO V. FERRAZ'
p283
(dp284
g3
F0.0
sg4
F0.0
sg5
F27942.0
sg6
I00
sg7
F0.0
sg8
I0
sg10
F0.0
sg11
F-101250.0
sg12
F0.0
sg13
F0.0
sg14
F0.0
sg15
F0.0
sg16
F0.0
sg17
F0.0
sg18
F101250.0
sg19
F0.0
sg20
F0.0
sg21
F0.0
sg22
F0.0
sg23
F0.0
sg24
F0.0
sg25
F0.0
sg26
F0.0
sg27
F27942.0
sg28
F0.0
sg29
F0.0
ssS'STABLER FRANK'
p285
(dp286
g3
F0.0
sg4
F0.0
sg5
F16514.0
sg6
I00
sg7
F0.0
sg8
S'frank.stabler@enron.com'
p287
sg10
F0.0
sg11
F0.0
sg12
F0.0
sg13
F0.0
sg14
F0.0
sg15
F0.0
sg16
F356071.0
sg17
F0.0
sg18
F0.0
sg19
F500000.0
sg20
F0.0
sg21
F511734.0
sg22
F0.44960511183027946
sg23
F0.0
sg24
F511734.0
sg25
F239502.0
sg26
F0.0
sg27
F1112087.0
sg28
F0.21536264698715119
sg29
F0.0
ssS'SKILLING JEFFREY K'
p288
(dp289
g3
F3627.0
sg4
F0.0
sg5
F29336.0
sg6
I01
sg7
F1920000.0
sg8
S'jeff.skilling@enron.com'
p290
sg10
F88.0
sg11
F0.0
sg12
F0.0
sg13
F2042.0
sg14
F0.0
sg15
F108.0
sg16
F22122.0
sg17
F18.90740740740741
sg18
F0.0
sg19
F5600000.0
sg20
F0.5629997242900469
sg21
F26093672.0
sg22
F0.6449594804206426
sg23
F30.0
sg24
F6843672.0
sg25
F1111258.0
sg26
F118.0
sg27
F8682716.0
sg28
F0.12798506826665756
sg29
F19250000.0
ssS'BLAKE JR. NORMAN P'
p291
(dp292
g3
F0.0
sg4
F0.0
sg5
F1279.0
sg6
I00
sg7
F0.0
sg8
I0
sg10
F0.0
sg11
F-113784.0
sg12
F0.0
sg13
F0.0
sg14
F0.0
sg15
F0.0
sg16
F0.0
sg17
F0.0
sg18
F113784.0
sg19
F0.0
sg20
F0.0
sg21
F0.0
sg22
F0.0
sg23
F0.0
sg24
F0.0
sg25
F0.0
sg26
F0.0
sg27
F1279.0
sg28
F0.0
sg29
F0.0
ssS'SHERRICK JEFFREY B'
p293
(dp294
g3
F613.0
sg4
F0.0
sg5
F0.0
sg6
I00
sg7
F0.0
sg8
S'jeffrey.sherrick@enron.com'
p295
sg10
F39.0
sg11
F0.0
sg12
F0.0
sg13
F583.0
sg14
F0.0
sg15
F25.0
sg16
F0.0
sg17
F23.32
sg18
F0.0
sg19
F0.0
sg20
F0.9510603588907015
sg21
F1832468.0
sg22
F0.0
sg23
F18.0
sg24
F405999.0
sg25
F0.0
sg26
F57.0
sg27
F0.0
sg28
F0.0
sg29
F1426469.0
ssS'PRENTICE JAMES'
p296
(dp297
g3
F0.0
sg4
F564348.0
sg5
F0.0
sg6
I00
sg7
F0.0
sg8
S'james.prentice@enron.com'
p298
sg10
F0.0
sg11
F0.0
sg12
F0.0
sg13
F0.0
sg14
F0.0
sg15
F0.0
sg16
F0.0
sg17
F0.0
sg18
F0.0
sg19
F0.0
sg20
F0.0
sg21
F1095040.0
sg22
F0.0
sg23
F0.0
sg24
F208809.0
sg25
F0.0
sg26
F0.0
sg27
F564348.0
sg28
F0.0
sg29
F886231.0
ssS'GRAY RODNEY'
p299
(dp300
g3
F0.0
sg4
F93585.0
sg5
F0.0
sg6
I00
sg7
F365625.0
sg8
I0
sg10
F0.0
sg11
F0.0
sg12
F0.0
sg13
F0.0
sg14
F0.0
sg15
F0.0
sg16
F680833.0
sg17
F0.0
sg18
F0.0
sg19
F0.0
sg20
F0.0
sg21
F0.0
sg22
F0.0
sg23
F0.0
sg24
F0.0
sg25
F6615.0
sg26
F0.0
sg27
F1146658.0
sg28
F0.005768938951282772
sg29
F0.0
ssS'PICKERING MARK R'
p301
(dp302
g3
F898.0
sg4
F0.0
sg5
F31653.0
sg6
I00
sg7
F0.0
sg8
S'mark.pickering@enron.com'
p303
sg10
F7.0
sg11
F0.0
sg12
F0.0
sg13
F728.0
sg14
F400000.0
sg15
F67.0
sg16
F0.0
sg17
F10.865671641791044
sg18
F0.0
sg19
F300000.0
sg20
F0.8106904231625836
sg21
F28798.0
sg22
F0.21634251346732147
sg23
F0.0
sg24
F0.0
sg25
F655037.0
sg26
F7.0
sg27
F1386690.0
sg28
F0.47237450331364617
sg29
F28798.0
ssS'NOLES JAMES L'
p304
(dp305
g3
F0.0
sg4
F774401.0
sg5
F0.0
sg6
I00
sg7
F0.0
sg8
I0
sg10
F0.0
sg11
F0.0
sg12
F-94556.0
sg13
F0.0
sg14
F0.0
sg15
F0.0
sg16
F0.0
sg17
F0.0
sg18
F0.0
sg19
F0.0
sg20
F0.0
sg21
F368705.0
sg22
F0.0
sg23
F0.0
sg24
F463261.0
sg25
F0.0
sg26
F0.0
sg27
F774401.0
sg28
F0.0
sg29
F0.0
ssS'KEAN STEVEN J'
p306
(dp307
g3
F12754.0
sg4
F0.0
sg5
F41953.0
sg6
I00
sg7
F300000.0
sg8
S'steven.kean@enron.com'
p308
sg10
F140.0
sg11
F0.0
sg12
F0.0
sg13
F3639.0
sg14
F0.0
sg15
F6759.0
sg16
F1231.0
sg17
F0.538393253439858
sg18
F0.0
sg19
F1000000.0
sg20
F0.2853222518425592
sg21
F6153642.0
sg22
F0.5722388616566773
sg23
F387.0
sg24
F4131594.0
sg25
F404338.0
sg26
F527.0
sg27
F1747522.0
sg28
F0.23137791684453757
sg29
F2022048.0
ssS'FOWLER PEGGY'
p309
(dp310
g3
F517.0
sg4
F0.0
sg5
F0.0
sg6
I00
sg7
F0.0
sg8
S'kulvinder.fowler@enron.com'
p311
sg10
F0.0
sg11
F0.0
sg12
F0.0
sg13
F10.0
sg14
F0.0
sg15
F36.0
sg16
F0.0
sg17
F0.2777777777777778
sg18
F0.0
sg19
F0.0
sg20
F0.019342359767891684
sg21
F1884748.0
sg22
F0.0
sg23
F0.0
sg24
F560170.0
sg25
F0.0
sg26
F0.0
sg27
F0.0
sg28
F0.0
sg29
F1324578.0
ssS'WASAFF GEORGE'
p312
(dp313
g3
F400.0
sg4
F831299.0
sg5
F0.0
sg6
I00
sg7
F200000.0
sg8
S'george.wasaff@enron.com'
p314
sg10
F22.0
sg11
F-583325.0
sg12
F0.0
sg13
F337.0
sg14
F0.0
sg15
F30.0
sg16
F1425.0
sg17
F11.233333333333333
sg18
F0.0
sg19
F325000.0
sg20
F0.8425
sg21
F2056427.0
sg22
F0.3141933207333755
sg23
F7.0
sg24
F388167.0
sg25
F259996.0
sg26
F29.0
sg27
F1034395.0
sg28
F0.2513507895919837
sg29
F1668260.0
ssS'WHITE JR THOMAS E'
p315
(dp316
g3
F0.0
sg4
F0.0
sg5
F81353.0
sg6
I00
sg7
F0.0
sg8
S'thomas.white@enron.com'
p317
sg10
F0.0
sg11
F0.0
sg12
F0.0
sg13
F0.0
sg14
F0.0
sg15
F0.0
sg16
F1085463.0
sg17
F0.0
sg18
F0.0
sg19
F450000.0
sg20
F0.0
sg21
F15144123.0
sg22
F0.23263520370313887
sg23
F0.0
sg24
F13847074.0
sg25
F317543.0
sg26
F0.0
sg27
F1934359.0
sg28
F0.1641592899766796
sg29
F1297049.0
ssS'CHRISTODOULOU DIOMEDES'
p318
(dp319
g3
F0.0
sg4
F0.0
sg5
F0.0
sg6
I00
sg7
F0.0
sg8
S'diomedes.christodoulou@enron.com'
p320
sg10
F0.0
sg11
F0.0
sg12
F0.0
sg13
F0.0
sg14
F0.0
sg15
F0.0
sg16
F0.0
sg17
F0.0
sg18
F0.0
sg19
F0.0
sg20
F0.0
sg21
F6077885.0
sg22
F0.0
sg23
F0.0
sg24
F950730.0
sg25
F0.0
sg26
F0.0
sg27
F0.0
sg28
F0.0
sg29
F5127155.0
ssS'ALLEN PHILLIP K'
p321
(dp322
g3
F2902.0
sg4
F2869717.0
sg5
F13868.0
sg6
I00
sg7
F304805.0
sg8
S'phillip.allen@enron.com'
p323
sg10
F47.0
sg11
F-3081055.0
sg12
F-126027.0
sg13
F1407.0
sg14
F0.0
sg15
F2195.0
sg16
F152.0
sg17
F0.6410022779043281
sg18
F0.0
sg19
F4175000.0
sg20
F0.4848380427291523
sg21
F1729541.0
sg22
F0.9309965431596617
sg23
F65.0
sg24
F126027.0
sg25
F201955.0
sg26
F112.0
sg27
F4484442.0
sg28
F0.04503458847276874
sg29
F1729541.0
ssS'SHARP VICTORIA T'
p324
(dp325
g3
F3136.0
sg4
F187469.0
sg5
F116337.0
sg6
I00
sg7
F422158.0
sg8
S'vicki.sharp@enron.com'
p326
sg10
F24.0
sg11
F0.0
sg12
F0.0
sg13
F2477.0
sg14
F0.0
sg15
F136.0
sg16
F2401.0
sg17
F18.21323529411765
sg18
F0.0
sg19
F600000.0
sg20
F0.7898596938775511
sg21
F494136.0
sg22
F0.38058725882661143
sg23
F6.0
sg24
F213063.0
sg25
F248146.0
sg26
F30.0
sg27
F1576511.0
sg28
F0.15740200988131386
sg29
F281073.0
ssS'JAEDICKE ROBERT'
p327
(dp328
g3
F0.0
sg4
F0.0
sg5
F0.0
sg6
I00
sg7
F0.0
sg8
I0
sg10
F0.0
sg11
F-25000.0
sg12
F-44093.0
sg13
F0.0
sg14
F0.0
sg15
F0.0
sg16
F0.0
sg17
F0.0
sg18
F108750.0
sg19
F0.0
sg20
F0.0
sg21
F431750.0
sg22
F0.0
sg23
F0.0
sg24
F44093.0
sg25
F0.0
sg26
F0.0
sg27
F83750.0
sg28
F0.0
sg29
F431750.0
ssS'WINOKUR JR. HERBERT S'
p329
(dp330
g3
F0.0
sg4
F0.0
sg5
F1413.0
sg6
I00
sg7
F0.0
sg8
I0
sg10
F0.0
sg11
F-25000.0
sg12
F0.0
sg13
F0.0
sg14
F0.0
sg15
F0.0
sg16
F0.0
sg17
F0.0
sg18
F108579.0
sg19
F0.0
sg20
F0.0
sg21
F0.0
sg22
F0.0
sg23
F0.0
sg24
F0.0
sg25
F0.0
sg26
F0.0
sg27
F84992.0
sg28
F0.0
sg29
F0.0
ssS'BROWN MICHAEL'
p331
(dp332
g3
F1486.0
sg4
F0.0
sg5
F49288.0
sg6
I00
sg7
F0.0
sg8
S'michael.brown@enron.com'
p333
sg10
F13.0
sg11
F0.0
sg12
F0.0
sg13
F761.0
sg14
F0.0
sg15
F41.0
sg16
F0.0
sg17
F18.5609756097561
sg18
F0.0
sg19
F0.0
sg20
F0.5121130551816958
sg21
F0.0
sg22
F0.0
sg23
F1.0
sg24
F0.0
sg25
F0.0
sg26
F14.0
sg27
F49288.0
sg28
F0.0
sg29
F0.0
ssS'BADUM JAMES P'
p334
(dp335
g3
F0.0
sg4
F178980.0
sg5
F3486.0
sg6
I00
sg7
F0.0
sg8
I0
sg10
F0.0
sg11
F0.0
sg12
F0.0
sg13
F0.0
sg14
F0.0
sg15
F0.0
sg16
F0.0
sg17
F0.0
sg18
F0.0
sg19
F0.0
sg20
F0.0
sg21
F257817.0
sg22
F0.0
sg23
F0.0
sg24
F0.0
sg25
F0.0
sg26
F0.0
sg27
F182466.0
sg28
F0.0
sg29
F257817.0
ssS'HUGHES JAMES A'
p336
(dp337
g3
F719.0
sg4
F0.0
sg5
F0.0
sg6
I00
sg7
F0.0
sg8
S'james.hughes@enron.com'
p338
sg10
F35.0
sg11
F0.0
sg12
F0.0
sg13
F589.0
sg14
F0.0
sg15
F34.0
sg16
F0.0
sg17
F17.323529411764707
sg18
F0.0
sg19
F0.0
sg20
F0.8191933240611962
sg21
F1118394.0
sg22
F0.0
sg23
F5.0
sg24
F363428.0
sg25
F0.0
sg26
F40.0
sg27
F0.0
sg28
F0.0
sg29
F754966.0
ssS'REYNOLDS LAWRENCE'
p339
(dp340
g3
F0.0
sg4
F51365.0
sg5
F8409.0
sg6
I00
sg7
F156250.0
sg8
I0
sg10
F0.0
sg11
F-200000.0
sg12
F-140264.0
sg13
F0.0
sg14
F0.0
sg15
F0.0
sg16
F202052.0
sg17
F0.0
sg18
F0.0
sg19
F100000.0
sg20
F0.0
sg21
F4221891.0
sg22
F0.2535014893212498
sg23
F0.0
sg24
F201483.0
sg25
F76399.0
sg26
F0.0
sg27
F394475.0
sg28
F0.1936726028265416
sg29
F4160672.0
ssS'DIMICHELE RICHARD G'
p341
(dp342
g3
F0.0
sg4
F0.0
sg5
F35812.0
sg6
I00
sg7
F694862.0
sg8
S'richard.dimichele@enron.com'
p343
sg10
F0.0
sg11
F0.0
sg12
F0.0
sg13
F0.0
sg14
F0.0
sg15
F0.0
sg16
F374689.0
sg17
F0.0
sg18
F0.0
sg19
F1000000.0
sg20
F0.0
sg21
F8317782.0
sg22
F0.42227037042823706
sg23
F0.0
sg24
F126027.0
sg25
F262788.0
sg26
F0.0
sg27
F2368151.0
sg28
F0.11096758610409556
sg29
F8191755.0
ssS'BHATNAGAR SANJAY'
p344
(dp345
g3
F523.0
sg4
F0.0
sg5
F137864.0
sg6
I00
sg7
F0.0
sg8
S'sanjay.bhatnagar@enron.com'
p346
sg10
F0.0
sg11
F0.0
sg12
F-2604490.0
sg13
F463.0
sg14
F0.0
sg15
F29.0
sg16
F0.0
sg17
F15.96551724137931
sg18
F0.0
sg19
F0.0
sg20
F0.8852772466539197
sg21
F15456290.0
sg22
F0.0
sg23
F1.0
sg24
F2604490.0
sg25
F0.0
sg26
F1.0
sg27
F137864.0
sg28
F0.0
sg29
F15456290.0
ssS'CARTER REBECCA C'
p347
(dp348
g3
F312.0
sg4
F0.0
sg5
F0.0
sg6
I00
sg7
F75000.0
sg8
S'rebecca.carter@enron.com'
p349
sg10
F29.0
sg11
F-159792.0
sg12
F-307301.0
sg13
F196.0
sg14
F0.0
sg15
F15.0
sg16
F540.0
sg17
F13.066666666666666
sg18
F0.0
sg19
F300000.0
sg20
F0.6282051282051282
sg21
F0.0
sg22
F0.6281972623163308
sg23
F7.0
sg24
F307301.0
sg25
F261809.0
sg26
F36.0
sg27
F477557.0
sg28
F0.5482256568325875
sg29
F0.0
ssS'BUCHANAN HAROLD G'
p350
(dp351
g3
F1088.0
sg4
F0.0
sg5
F600.0
sg6
I00
sg7
F304805.0
sg8
S'john.buchanan@enron.com'
p352
sg10
F0.0
sg11
F0.0
sg12
F0.0
sg13
F23.0
sg14
F0.0
sg15
F125.0
sg16
F1215.0
sg17
F0.184
sg18
F0.0
sg19
F500000.0
sg20
F0.021139705882352942
sg21
F1014505.0
sg22
F0.47409677453000415
sg23
F0.0
sg24
F189041.0
sg25
F248017.0
sg26
F0.0
sg27
F1054637.0
sg28
F0.23516811945721608
sg29
F825464.0
ssS'YEAP SOON'
p353
(dp354
g3
F0.0
sg4
F0.0
sg5
F55097.0
sg6
I00
sg7
F0.0
sg8
I0
sg10
F0.0
sg11
F0.0
sg12
F0.0
sg13
F0.0
sg14
F0.0
sg15
F0.0
sg16
F0.0
sg17
F0.0
sg18
F0.0
sg19
F0.0
sg20
F0.0
sg21
F192758.0
sg22
F0.0
sg23
F0.0
sg24
F0.0
sg25
F0.0
sg26
F0.0
sg27
F55097.0
sg28
F0.0
sg29
F192758.0
ssS'MURRAY JULIA H'
p355
(dp356
g3
F2192.0
sg4
F0.0
sg5
F57580.0
sg6
I00
sg7
F125000.0
sg8
S'julia.murray@enron.com'
p357
sg10
F11.0
sg11
F0.0
sg12
F0.0
sg13
F395.0
sg14
F0.0
sg15
F45.0
sg16
F330.0
sg17
F8.777777777777779
sg18
F0.0
sg19
F400000.0
sg20
F0.1802007299270073
sg21
F597461.0
sg22
F0.4924931728133919
sg23
F2.0
sg24
F196983.0
sg25
F229284.0
sg26
F13.0
sg27
F812194.0
sg28
F0.2823020115883644
sg29
F400478.0
ssS'GARLAND C KEVIN'
p358
(dp359
g3
F209.0
sg4
F0.0
sg5
F48405.0
sg6
I00
sg7
F375304.0
sg8
S'kevin.garland@enron.com'
p360
sg10
F10.0
sg11
F0.0
sg12
F0.0
sg13
F178.0
sg14
F0.0
sg15
F44.0
sg16
F60814.0
sg17
F4.045454545454546
sg18
F0.0
sg19
F850000.0
sg20
F0.8516746411483254
sg21
F896153.0
sg22
F0.5426216541789208
sg23
F27.0
sg24
F259907.0
sg25
F231946.0
sg26
F37.0
sg27
F1566469.0
sg28
F0.14806932023551056
sg29
F636246.0
ssS'DODSON KEITH'
p361
(dp362
g3
F176.0
sg4
F0.0
sg5
F28164.0
sg6
I00
sg7
F0.0
sg8
S'keith.dodson@enron.com'
p363
sg10
F10.0
sg11
F0.0
sg12
F0.0
sg13
F114.0
sg14
F0.0
sg15
F14.0
sg16
F774.0
sg17
F8.142857142857142
sg18
F0.0
sg19
F70000.0
sg20
F0.6477272727272727
sg21
F0.0
sg22
F0.21879033946883958
sg23
F3.0
sg24
F0.0
sg25
F221003.0
sg26
F13.0
sg27
F319941.0
sg28
F0.6907617341947422
sg29
F0.0
ssS'YEAGER F SCOTT'
p364
(dp365
g3
F0.0
sg4
F0.0
sg5
F53947.0
sg6
I01
sg7
F0.0
sg8
S'scott.yeager@enron.com'
p366
sg10
F0.0
sg11
F0.0
sg12
F0.0
sg13
F0.0
sg14
F0.0
sg15
F0.0
sg16
F147950.0
sg17
F0.0
sg18
F0.0
sg19
F0.0
sg20
F0.0
sg21
F11884758.0
sg22
F0.0
sg23
F0.0
sg24
F3576206.0
sg25
F158403.0
sg26
F0.0
sg27
F360300.0
sg28
F0.4396419650291424
sg29
F8308552.0
ssS'HIRKO JOSEPH'
p367
(dp368
g3
F0.0
sg4
F10259.0
sg5
F77978.0
sg6
I01
sg7
F0.0
sg8
S'joe.hirko@enron.com'
p369
sg10
F0.0
sg11
F0.0
sg12
F0.0
sg13
F0.0
sg14
F0.0
sg15
F0.0
sg16
F2856.0
sg17
F0.0
sg18
F0.0
sg19
F0.0
sg20
F0.0
sg21
F30766064.0
sg22
F0.0
sg23
F0.0
sg24
F0.0
sg25
F0.0
sg26
F0.0
sg27
F91093.0
sg28
F0.0
sg29
F30766064.0
ssS'DIETRICH JANET R'
p370
(dp371
g3
F2572.0
sg4
F0.0
sg5
F3475.0
sg6
I00
sg7
F556416.0
sg8
S'janet.dietrich@enron.com'
p372
sg10
F305.0
sg11
F0.0
sg12
F0.0
sg13
F1902.0
sg14
F0.0
sg15
F63.0
sg16
F473.0
sg17
F30.19047619047619
sg18
F0.0
sg19
F600000.0
sg20
F0.73950233281493
sg21
F1865087.0
sg22
F0.4253919277627788
sg23
F14.0
sg24
F315068.0
sg25
F250100.0
sg26
F319.0
sg27
F1410464.0
sg28
F0.1773175352224516
sg29
F1550019.0
ssS'DERRICK JR. JAMES V'
p373
(dp374
g3
F2181.0
sg4
F0.0
sg5
F51124.0
sg6
I00
sg7
F484000.0
sg8
S'james.derrick@enron.com'
p375
sg10
F64.0
sg11
F-1284000.0
sg12
F-1787380.0
sg13
F1401.0
sg14
F0.0
sg15
F909.0
sg16
F7482.0
sg17
F1.5412541254125414
sg18
F0.0
sg19
F800000.0
sg20
F0.6423658872077029
sg21
F8831913.0
sg22
F1.4519556935720106
sg23
F20.0
sg24
F1787380.0
sg25
F492375.0
sg26
F84.0
sg27
F550981.0
sg28
F0.8936333557781484
sg29
F8831913.0
ssS'FREVERT MARK A'
p376
(dp377
g3
F3275.0
sg4
F6426990.0
sg5
F86987.0
sg6
I00
sg7
F1617011.0
sg8
S'mark.frevert@enron.com'
p378
sg10
F242.0
sg11
F-3367011.0
sg12
F0.0
sg13
F2979.0
sg14
F2000000.0
sg15
F21.0
sg16
F7427621.0
sg17
F141.85714285714286
sg18
F0.0
sg19
F2000000.0
sg20
F0.909618320610687
sg21
F14622185.0
sg22
F0.1159250266482655
sg23
F6.0
sg24
F4188667.0
sg25
F1060932.0
sg26
F248.0
sg27
F17252530.0
sg28
F0.06149428518599881
sg29
F10433518.0
ssS'PAI LOU L'
p379
(dp380
g3
F0.0
sg4
F0.0
sg5
F32047.0
sg6
I00
sg7
F0.0
sg8
S'lou.pai@enron.com'
p381
sg10
F0.0
sg11
F0.0
sg12
F0.0
sg13
F0.0
sg14
F0.0
sg15
F0.0
sg16
F1829457.0
sg17
F0.0
sg18
F0.0
sg19
F1000000.0
sg20
F0.0
sg21
F23817930.0
sg22
F0.3201656665224854
sg23
F0.0
sg24
F8453763.0
sg25
F261879.0
sg26
F0.0
sg27
F3123383.0
sg28
F0.08384466458324195
sg29
F15364167.0
ssS'BAY FRANKLIN R'
p382
(dp383
g3
F0.0
sg4
F260455.0
sg5
F129142.0
sg6
I00
sg7
F0.0
sg8
S'frank.bay@enron.com'
p384
sg10
F0.0
sg11
F-201641.0
sg12
F-82782.0
sg13
F0.0
sg14
F0.0
sg15
F0.0
sg16
F69.0
sg17
F0.0
sg18
F0.0
sg19
F400000.0
sg20
F0.0
sg21
F63014.0
sg22
F0.48326921961686414
sg23
F0.0
sg24
F145796.0
sg25
F239671.0
sg26
F0.0
sg27
F827696.0
sg28
F0.2895640428369836
sg29
F0.0
ssS'HAYSLETT RODERICK J'
p385
(dp386
g3
F2649.0
sg4
F0.0
sg5
F0.0
sg6
I00
sg7
F0.0
sg8
S'rod.hayslett@enron.com'
p387
sg10
F35.0
sg11
F0.0
sg12
F0.0
sg13
F571.0
sg14
F0.0
sg15
F1061.0
sg16
F0.0
sg17
F0.5381715362865221
sg18
F0.0
sg19
F0.0
sg20
F0.21555303888259722
sg21
F346663.0
sg22
F0.0
sg23
F38.0
sg24
F346663.0
sg25
F0.0
sg26
F73.0
sg27
F0.0
sg28
F0.0
sg29
F0.0
ssS'FUGH JOHN L'
p388
(dp389
g3
F0.0
sg4
F50591.0
sg5
F0.0
sg6
I00
sg7
F0.0
sg8
I0
sg10
F0.0
sg11
F0.0
sg12
F0.0
sg13
F0.0
sg14
F0.0
sg15
F0.0
sg16
F0.0
sg17
F0.0
sg18
F0.0
sg19
F0.0
sg20
F0.0
sg21
F176378.0
sg22
F0.0
sg23
F0.0
sg24
F0.0
sg25
F0.0
sg26
F0.0
sg27
F50591.0
sg28
F0.0
sg29
F176378.0
ssS'FALLON JAMES B'
p390
(dp391
g3
F1755.0
sg4
F0.0
sg5
F95924.0
sg6
I00
sg7
F374347.0
sg8
S'jim.fallon@enron.com'
p392
sg10
F42.0
sg11
F0.0
sg12
F0.0
sg13
F1604.0
sg14
F0.0
sg15
F75.0
sg16
F401481.0
sg17
F21.386666666666667
sg18
F0.0
sg19
F2500000.0
sg20
F0.913960113960114
sg21
F2332399.0
sg22
F0.6800241544579664
sg23
F37.0
sg24
F1392142.0
sg25
F304588.0
sg26
F79.0
sg27
F3676340.0
sg28
F0.08285087886321722
sg29
F940257.0
ssS'KOENIG MARK E'
p393
(dp394
g3
F2374.0
sg4
F0.0
sg5
F127017.0
sg6
I01
sg7
F300000.0
sg8
S'mark.koenig@enron.com'
p395
sg10
F53.0
sg11
F0.0
sg12
F0.0
sg13
F2271.0
sg14
F0.0
sg15
F61.0
sg16
F150458.0
sg17
F37.22950819672131
sg18
F0.0
sg19
F700000.0
sg20
F0.9566133108677338
sg21
F1920055.0
sg22
F0.44096682606567505
sg23
F15.0
sg24
F1248318.0
sg25
F309946.0
sg26
F68.0
sg27
F1587421.0
sg28
F0.19525129124535962
sg29
F671737.0
ssS'SAVAGE FRANK'
p396
(dp397
g3
F0.0
sg4
F0.0
sg5
F0.0
sg6
I00
sg7
F0.0
sg8
I0
sg10
F0.0
sg11
F-121284.0
sg12
F0.0
sg13
F0.0
sg14
F0.0
sg15
F0.0
sg16
F0.0
sg17
F0.0
sg18
F125034.0
sg19
F0.0
sg20
F0.0
sg21
F0.0
sg22
F0.0
sg23
F0.0
sg24
F0.0
sg25
F0.0
sg26
F0.0
sg27
F3750.0
sg28
F0.0
sg29
F0.0
ssS'IZZO LAWRENCE L'
p398
(dp399
g3
F496.0
sg4
F0.0
sg5
F28093.0
sg6
I00
sg7
F312500.0
sg8
S'larry.izzo@enron.com'
p400
sg10
F28.0
sg11
F0.0
sg12
F0.0
sg13
F437.0
sg14
F0.0
sg15
F19.0
sg16
F1553729.0
sg17
F23.0
sg18
F0.0
sg19
F0.0
sg20
F0.8810483870967742
sg21
F5819980.0
sg22
F0.0
sg23
F5.0
sg24
F3654808.0
sg25
F85274.0
sg26
F33.0
sg27
F1979596.0
sg28
F0.043076466107225916
sg29
F2165172.0
ssS'TILNEY ELIZABETH A'
p401
(dp402
g3
F460.0
sg4
F0.0
sg5
F0.0
sg6
I00
sg7
F275000.0
sg8
S'elizabeth.tilney@enron.com'
p403
sg10
F10.0
sg11
F-575000.0
sg12
F0.0
sg13
F379.0
sg14
F0.0
sg15
F19.0
sg16
F152055.0
sg17
F19.94736842105263
sg18
F0.0
sg19
F300000.0
sg20
F0.8239130434782609
sg21
F1168042.0
sg22
F0.7511398547295521
sg23
F11.0
sg24
F576792.0
sg25
F247338.0
sg26
F21.0
sg27
F399393.0
sg28
F0.6192847646303266
sg29
F591250.0
ssS'MARTIN AMANDA K'
p404
(dp405
g3
F1522.0
sg4
F85430.0
sg5
F8211.0
sg6
I00
sg7
F5145434.0
sg8
S'a..martin@enron.com'
p406
sg10
F8.0
sg11
F0.0
sg12
F0.0
sg13
F477.0
sg14
F0.0
sg15
F230.0
sg16
F2818454.0
sg17
F2.0739130434782607
sg18
F0.0
sg19
F0.0
sg20
F0.31340341655716164
sg21
F2070306.0
sg22
F0.0
sg23
F0.0
sg24
F0.0
sg25
F349487.0
sg26
F8.0
sg27
F8407016.0
sg28
F0.04157087366076144
sg29
F2070306.0
ssS'BUY RICHARD B'
p407
(dp408
g3
F3523.0
sg4
F649584.0
sg5
F0.0
sg6
I00
sg7
F769862.0
sg8
S'rick.buy@enron.com'
p409
sg10
F156.0
sg11
F-694862.0
sg12
F0.0
sg13
F2333.0
sg14
F0.0
sg15
F1053.0
sg16
F400572.0
sg17
F2.2155745489078824
sg18
F0.0
sg19
F900000.0
sg20
F0.6622196991200682
sg21
F3444470.0
sg22
F0.38205171961479
sg23
F71.0
sg24
F901657.0
sg25
F330546.0
sg26
F227.0
sg27
F2355702.0
sg28
F0.14031740856865596
sg29
F2542813.0
ssS'GRAMM WENDY L'
p410
(dp411
g3
F0.0
sg4
F0.0
sg5
F0.0
sg6
I00
sg7
F0.0
sg8
I0
sg10
F0.0
sg11
F0.0
sg12
F0.0
sg13
F0.0
sg14
F0.0
sg15
F0.0
sg16
F0.0
sg17
F0.0
sg18
F119292.0
sg19
F0.0
sg20
F0.0
sg21
F0.0
sg22
F0.0
sg23
F0.0
sg24
F0.0
sg25
F0.0
sg26
F0.0
sg27
F119292.0
sg28
F0.0
sg29
F0.0
ssS'CAUSEY RICHARD A'
p412
(dp413
g3
F1892.0
sg4
F0.0
sg5
F30674.0
sg6
I01
sg7
F350000.0
sg8
S'richard.causey@enron.com'
p414
sg10
F58.0
sg11
F-235000.0
sg12
F0.0
sg13
F1585.0
sg14
F0.0
sg15
F49.0
sg16
F307895.0
sg17
F32.3469387755102
sg18
F0.0
sg19
F1000000.0
sg20
F0.837737843551797
sg21
F2502063.0
sg22
F0.5351147660638778
sg23
F12.0
sg24
F2502063.0
sg25
F415189.0
sg26
F70.0
sg27
F1868758.0
sg28
F0.22217376460729532
sg29
F0.0
ssS'TAYLOR MITCHELL S'
p415
(dp416
g3
F533.0
sg4
F227449.0
sg5
F0.0
sg6
I00
sg7
F0.0
sg8
S'mitchell.taylor@enron.com'
p417
sg10
F0.0
sg11
F0.0
sg12
F0.0
sg13
F300.0
sg14
F0.0
sg15
F29.0
sg16
F0.0
sg17
F10.344827586206897
sg18
F0.0
sg19
F600000.0
sg20
F0.5628517823639775
sg21
F3745048.0
sg22
F0.5491171568910085
sg23
F0.0
sg24
F563798.0
sg25
F265214.0
sg26
F0.0
sg27
F1092663.0
sg28
F0.24272259607948654
sg29
F3181250.0
ssS'DONAHUE JR JEFFREY M'
p418
(dp419
g3
F865.0
sg4
F0.0
sg5
F96268.0
sg6
I00
sg7
F0.0
sg8
S'jeff.donahue@enron.com'
p420
sg10
F188.0
sg11
F-300000.0
sg12
F0.0
sg13
F772.0
sg14
F0.0
sg15
F22.0
sg16
F891.0
sg17
F35.09090909090909
sg18
F0.0
sg19
F800000.0
sg20
F0.892485549132948
sg21
F1080988.0
sg22
F0.9134922809902256
sg23
F11.0
sg24
F315068.0
sg25
F278601.0
sg26
F199.0
sg27
F875760.0
sg28
F0.3181248287201973
sg29
F765920.0
ssS'GLISAN JR BEN F'
p421
(dp422
g3
F873.0
sg4
F0.0
sg5
F125978.0
sg6
I01
sg7
F71023.0
sg8
S'ben.glisan@enron.com'
p423
sg10
F52.0
sg11
F0.0
sg12
F0.0
sg13
F874.0
sg14
F0.0
sg15
F16.0
sg16
F200308.0
sg17
F54.625
sg18
F0.0
sg19
F600000.0
sg20
F1.0011454753722795
sg21
F778546.0
sg22
F0.4715928204709012
sg23
F6.0
sg24
F393818.0
sg25
F274975.0
sg26
F58.0
sg27
F1272284.0
sg28
F0.21612705968164342
sg29
F384728.0
ss.