(lp0
S'poi'
p1
aS'salary'
p2
aS'total_payments'
p3
aS'bonus'
p4
aS'total_stock_value'
p5
aS'exercised_stock_options'
p6
aS'deferred_income'
p7
aS'restricted_stock'
p8
aS'long_term_incentive'
p9
aS'sum_total_poi_messages'
p10
aS'bonus_over_total_salary'
p11
aS'salary_over_total_salary'
p12
aS'shared_receipt_over_from_messages'
p13
aS'shared_receipt_over_to_messages'
p14
a.